
./build/main.o:     file format elf64-x86-64


Disassembly of section .group:

0000000000000000 <wm4.0.87745195760a1e24b6544436e61320f2>:
   0:	01 00                	add    DWORD PTR [rax],eax
   2:	00 00                	add    BYTE PTR [rax],al
   4:	45 00 00             	add    BYTE PTR [r8],r8b
   7:	00 46 00             	add    BYTE PTR [rsi+0x0],al
	...

Disassembly of section .group:

0000000000000000 <wm4.stdcpredef.h.19.88fdbfd5cf6f83ed579effc3e425f09b>:
   0:	01 00                	add    DWORD PTR [rax],eax
   2:	00 00                	add    BYTE PTR [rax],al
   4:	47 00 00             	rex.RXB add BYTE PTR [r8],r8b
   7:	00 48 00             	add    BYTE PTR [rax+0x0],cl
	...

Disassembly of section .group:

0000000000000000 <wm4.stdint.h.23.022efde71688fcb285fe42cc87d41ee3>:
   0:	01 00                	add    DWORD PTR [rax],eax
   2:	00 00                	add    BYTE PTR [rax],al
   4:	49 00 00             	rex.WB add BYTE PTR [r8],al
   7:	00 4a 00             	add    BYTE PTR [rdx+0x0],cl
	...

Disassembly of section .group:

0000000000000000 <wm4.features.h.19.c458cab9a132b6e363bff40a50c8f8e4>:
   0:	01 00                	add    DWORD PTR [rax],eax
   2:	00 00                	add    BYTE PTR [rax],al
   4:	4b 00 00             	rex.WXB add BYTE PTR [r8],al
   7:	00 4c 00 00          	add    BYTE PTR [rax+rax*1+0x0],cl
	...

Disassembly of section .group:

0000000000000000 <wm4.wordsize.h.4.21825217995af4880cdf0ea22ad93ab2>:
   0:	01 00                	add    DWORD PTR [rax],eax
   2:	00 00                	add    BYTE PTR [rax],al
   4:	4d 00 00             	rex.WRB add BYTE PTR [r8],r8b
   7:	00 4e 00             	add    BYTE PTR [rsi+0x0],cl
	...

Disassembly of section .group:

0000000000000000 <wm4.features.h.418.f53b8baebe25d1eb6699fd4a15c4eac3>:
   0:	01 00                	add    DWORD PTR [rax],eax
   2:	00 00                	add    BYTE PTR [rax],al
   4:	4f 00 00             	rex.WRXB add BYTE PTR [r8],r8b
   7:	00 50 00             	add    BYTE PTR [rax+0x0],dl
	...

Disassembly of section .group:

0000000000000000 <wm4.cdefs.h.20.7983c25a8015395497d57e0f2323fa4b>:
   0:	01 00                	add    DWORD PTR [rax],eax
   2:	00 00                	add    BYTE PTR [rax],al
   4:	51                   	push   rcx
   5:	00 00                	add    BYTE PTR [rax],al
   7:	00 52 00             	add    BYTE PTR [rdx+0x0],dl
	...

Disassembly of section .group:

0000000000000000 <wm4.cdefs.h.788.e8571391c2d896d8f5f77c5a7759b6a3>:
   0:	01 00                	add    DWORD PTR [rax],eax
   2:	00 00                	add    BYTE PTR [rax],al
   4:	53                   	push   rbx
   5:	00 00                	add    BYTE PTR [rax],al
   7:	00 54 00 00          	add    BYTE PTR [rax+rax*1+0x0],dl
	...

Disassembly of section .group:

0000000000000000 <wm4.stubs64.h.10.7865f4f7062bab1c535c1f73f43aa9b9>:
   0:	01 00                	add    DWORD PTR [rax],eax
   2:	00 00                	add    BYTE PTR [rax],al
   4:	55                   	push   rbp
   5:	00 00                	add    BYTE PTR [rax],al
   7:	00 56 00             	add    BYTE PTR [rsi+0x0],dl
	...

Disassembly of section .group:

0000000000000000 <wm4.libcheaderstart.h.37.54e8d8059c870ac734d329906f602c2b>:
   0:	01 00                	add    DWORD PTR [rax],eax
   2:	00 00                	add    BYTE PTR [rax],al
   4:	57                   	push   rdi
   5:	00 00                	add    BYTE PTR [rax],al
   7:	00 58 00             	add    BYTE PTR [rax+0x0],bl
	...

Disassembly of section .group:

0000000000000000 <wm4.types.h.109.56eb9ae966b255288cc544f18746a7ff>:
   0:	01 00                	add    DWORD PTR [rax],eax
   2:	00 00                	add    BYTE PTR [rax],al
   4:	59                   	pop    rcx
   5:	00 00                	add    BYTE PTR [rax],al
   7:	00 5a 00             	add    BYTE PTR [rdx+0x0],bl
	...

Disassembly of section .group:

0000000000000000 <wm4.typesizes.h.24.ccf5919b8e01b553263cf8f4ab1d5fde>:
   0:	01 00                	add    DWORD PTR [rax],eax
   2:	00 00                	add    BYTE PTR [rax],al
   4:	5b                   	pop    rbx
   5:	00 00                	add    BYTE PTR [rax],al
   7:	00 5c 00 00          	add    BYTE PTR [rax+rax*1+0x0],bl
	...

Disassembly of section .group:

0000000000000000 <wm4.time64.h.24.a8166ae916ec910dab0d8987098d42ee>:
   0:	01 00                	add    DWORD PTR [rax],eax
   2:	00 00                	add    BYTE PTR [rax],al
   4:	5d                   	pop    rbp
   5:	00 00                	add    BYTE PTR [rax],al
   7:	00 5e 00             	add    BYTE PTR [rsi+0x0],bl
	...

Disassembly of section .group:

0000000000000000 <wm4.wchar.h.20.510818a05484290d697a517509bf4b2d>:
   0:	01 00                	add    DWORD PTR [rax],eax
   2:	00 00                	add    BYTE PTR [rax],al
   4:	5f                   	pop    rdi
   5:	00 00                	add    BYTE PTR [rax],al
   7:	00 60 00             	add    BYTE PTR [rax+0x0],ah
	...

Disassembly of section .group:

0000000000000000 <wm4.stdint.h.77.2c483fb59bdff411b77616f53b8efe8b>:
   0:	01 00                	add    DWORD PTR [rax],eax
   2:	00 00                	add    BYTE PTR [rax],al
   4:	61                   	(bad)
   5:	00 00                	add    BYTE PTR [rax],al
   7:	00 62 00             	add    BYTE PTR [rdx+0x0],ah
	...

Disassembly of section .group:

0000000000000000 <wm4.stdio.h.25.1c5c422121aca52011e0e42ba2514dbf>:
   0:	01 00                	add    DWORD PTR [rax],eax
   2:	00 00                	add    BYTE PTR [rax],al
   4:	63 00                	movsxd eax,DWORD PTR [rax]
   6:	00 00                	add    BYTE PTR [rax],al
   8:	64 00 00             	add    BYTE PTR fs:[rax],al
	...

Disassembly of section .group:

0000000000000000 <wm4.libcheaderstart.h.31.c486d45d0dfd23b377d2be9ea2ca81c6>:
   0:	01 00                	add    DWORD PTR [rax],eax
   2:	00 00                	add    BYTE PTR [rax],al
   4:	65 00 00             	add    BYTE PTR gs:[rax],al
   7:	00 66 00             	add    BYTE PTR [rsi+0x0],ah
	...

Disassembly of section .group:

0000000000000000 <wm4.stdio.h.32.9752d760d3ae23019afae8a2c0ddf175>:
   0:	01 00                	add    DWORD PTR [rax],eax
   2:	00 00                	add    BYTE PTR [rax],al
   4:	67 00 00             	add    BYTE PTR [eax],al
   7:	00 68 00             	add    BYTE PTR [rax+0x0],ch
	...

Disassembly of section .group:

0000000000000000 <wm4.stddef.h.185.cbb642e1ccd385e8aa504b15cb7fb086>:
   0:	01 00                	add    DWORD PTR [rax],eax
   2:	00 00                	add    BYTE PTR [rax],al
   4:	69 00 00 00 6a 00    	imul   eax,DWORD PTR [rax],0x6a0000
	...

Disassembly of section .group:

0000000000000000 <wm4.stdarg.h.34.3a23a216c0c293b3d2ea2e89281481e6>:
   0:	01 00                	add    DWORD PTR [rax],eax
   2:	00 00                	add    BYTE PTR [rax],al
   4:	6b 00 00             	imul   eax,DWORD PTR [rax],0x0
   7:	00 6c 00 00          	add    BYTE PTR [rax+rax*1+0x0],ch
	...

Disassembly of section .group:

0000000000000000 <wm4.struct_FILE.h.20.95bcbfccb28af30d1a703140dfd205b0>:
   0:	01 00                	add    DWORD PTR [rax],eax
   2:	00 00                	add    BYTE PTR [rax],al
   4:	6d                   	ins    DWORD PTR es:[rdi],dx
   5:	00 00                	add    BYTE PTR [rax],al
   7:	00 6e 00             	add    BYTE PTR [rsi+0x0],ch
	...

Disassembly of section .group:

0000000000000000 <wm4.stdio.h.54.b205cd6bfc772e436995c9e626b02a06>:
   0:	01 00                	add    DWORD PTR [rax],eax
   2:	00 00                	add    BYTE PTR [rax],al
   4:	6f                   	outs   dx,DWORD PTR ds:[rsi]
   5:	00 00                	add    BYTE PTR [rax],al
   7:	00 70 00             	add    BYTE PTR [rax+0x0],dh
	...

Disassembly of section .group:

0000000000000000 <wm4.stdio_lim.h.20.fc0a6e7f49f46c54db260d6cc0e75267>:
   0:	01 00                	add    DWORD PTR [rax],eax
   2:	00 00                	add    BYTE PTR [rax],al
   4:	71 00                	jno    6 <wm4.stdio_lim.h.20.fc0a6e7f49f46c54db260d6cc0e75267+0x6>
   6:	00 00                	add    BYTE PTR [rax],al
   8:	72 00                	jb     a <wm4.stdio_lim.h.20.fc0a6e7f49f46c54db260d6cc0e75267+0xa>
	...

Disassembly of section .group:

0000000000000000 <wm4.stdio.h.132.7b4c56574c1a8c08972f6fdfc91ed0b5>:
   0:	01 00                	add    DWORD PTR [rax],eax
   2:	00 00                	add    BYTE PTR [rax],al
   4:	73 00                	jae    6 <wm4.stdio.h.132.7b4c56574c1a8c08972f6fdfc91ed0b5+0x6>
   6:	00 00                	add    BYTE PTR [rax],al
   8:	74 00                	je     a <wm4.stdio.h.132.7b4c56574c1a8c08972f6fdfc91ed0b5+0xa>
	...

Disassembly of section .group:

0000000000000000 <wm4.floatn.h.20.40a9ac728e59b3a32d20c30e247f330a>:
   0:	01 00                	add    DWORD PTR [rax],eax
   2:	00 00                	add    BYTE PTR [rax],al
   4:	75 00                	jne    6 <wm4.floatn.h.20.40a9ac728e59b3a32d20c30e247f330a+0x6>
   6:	00 00                	add    BYTE PTR [rax],al
   8:	76 00                	jbe    a <wm4.floatn.h.20.40a9ac728e59b3a32d20c30e247f330a+0xa>
	...

Disassembly of section .group:

0000000000000000 <wm4.floatncommon.h.34.7e1840d7dfb19e9bdb51aeb077d76637>:
   0:	01 00                	add    DWORD PTR [rax],eax
   2:	00 00                	add    BYTE PTR [rax],al
   4:	77 00                	ja     6 <wm4.floatncommon.h.34.7e1840d7dfb19e9bdb51aeb077d76637+0x6>
   6:	00 00                	add    BYTE PTR [rax],al
   8:	78 00                	js     a <wm4.floatncommon.h.34.7e1840d7dfb19e9bdb51aeb077d76637+0xa>
	...

Disassembly of section .group:

0000000000000000 <wm4.stdlib.h.29.dde59e751a3b6c4506ba901b60a85c87>:
   0:	01 00                	add    DWORD PTR [rax],eax
   2:	00 00                	add    BYTE PTR [rax],al
   4:	79 00                	jns    6 <wm4.stdlib.h.29.dde59e751a3b6c4506ba901b60a85c87+0x6>
   6:	00 00                	add    BYTE PTR [rax],al
   8:	7a 00                	jp     a <wm4.stdlib.h.29.dde59e751a3b6c4506ba901b60a85c87+0xa>
	...

Disassembly of section .group:

0000000000000000 <wm4.stddef.h.237.2a7f4947d4b7296e7e393bf9a618c3c1>:
   0:	01 00                	add    DWORD PTR [rax],eax
   2:	00 00                	add    BYTE PTR [rax],al
   4:	7b 00                	jnp    6 <wm4.stddef.h.237.2a7f4947d4b7296e7e393bf9a618c3c1+0x6>
   6:	00 00                	add    BYTE PTR [rax],al
   8:	7c 00                	jl     a <wm4.stddef.h.237.2a7f4947d4b7296e7e393bf9a618c3c1+0xa>
	...

Disassembly of section .group:

0000000000000000 <wm4.waitflags.h.25.33c1a56564084888d0719c1519fd9fc3>:
   0:	01 00                	add    DWORD PTR [rax],eax
   2:	00 00                	add    BYTE PTR [rax],al
   4:	7d 00                	jge    6 <wm4.waitflags.h.25.33c1a56564084888d0719c1519fd9fc3+0x6>
   6:	00 00                	add    BYTE PTR [rax],al
   8:	7e 00                	jle    a <wm4.waitflags.h.25.33c1a56564084888d0719c1519fd9fc3+0xa>
	...

Disassembly of section .group:

0000000000000000 <wm4.waitstatus.h.28.93f167f49d64e2b9b99f98d1162a93bf>:
   0:	01 00                	add    DWORD PTR [rax],eax
   2:	00 00                	add    BYTE PTR [rax],al
   4:	7f 00                	jg     6 <wm4.waitstatus.h.28.93f167f49d64e2b9b99f98d1162a93bf+0x6>
   6:	00 00                	add    BYTE PTR [rax],al
   8:	80 00 00             	add    BYTE PTR [rax],0x0
	...

Disassembly of section .group:

0000000000000000 <wm4.stdlib.h.44.fc9d051d38577d71bf2818359e56065c>:
   0:	01 00                	add    DWORD PTR [rax],eax
   2:	00 00                	add    BYTE PTR [rax],al
   4:	81 00 00 00 82 00    	add    DWORD PTR [rax],0x820000
	...

Disassembly of section .group:

0000000000000000 <wm4.types.h.23.882ecbf54662e1f16e101552381a65da>:
   0:	01 00                	add    DWORD PTR [rax],eax
   2:	00 00                	add    BYTE PTR [rax],al
   4:	83 00 00             	add    DWORD PTR [rax],0x0
   7:	00                   	.byte 0
   8:	84 00                	test   BYTE PTR [rax],al
	...

Disassembly of section .group:

0000000000000000 <wm4.stddef.h.237.1f61be91cef0ba0db0d8c26bca1f54cc>:
   0:	01 00                	add    DWORD PTR [rax],eax
   2:	00 00                	add    BYTE PTR [rax],al
   4:	85 00                	test   DWORD PTR [rax],eax
   6:	00 00                	add    BYTE PTR [rax],al
   8:	86 00                	xchg   BYTE PTR [rax],al
	...

Disassembly of section .group:

0000000000000000 <wm4.endian.h.20.efabd1018df5d7b4052c27dc6bdd5ce5>:
   0:	01 00                	add    DWORD PTR [rax],eax
   2:	00 00                	add    BYTE PTR [rax],al
   4:	87 00                	xchg   DWORD PTR [rax],eax
   6:	00 00                	add    BYTE PTR [rax],al
   8:	88 00                	mov    BYTE PTR [rax],al
	...

Disassembly of section .group:

0000000000000000 <wm4.endianness.h.2.2c6a211f7909f3af5e9e9cfa3b6b63c8>:
   0:	01 00                	add    DWORD PTR [rax],eax
   2:	00 00                	add    BYTE PTR [rax],al
   4:	89 00                	mov    DWORD PTR [rax],eax
   6:	00 00                	add    BYTE PTR [rax],al
   8:	8a 00                	mov    al,BYTE PTR [rax]
	...

Disassembly of section .group:

0000000000000000 <wm4.endian.h.40.9e5d395adda2f4eb53ae69b69b664084>:
   0:	01 00                	add    DWORD PTR [rax],eax
   2:	00 00                	add    BYTE PTR [rax],al
   4:	8b 00                	mov    eax,DWORD PTR [rax]
   6:	00 00                	add    BYTE PTR [rax],al
   8:	8c 00                	mov    WORD PTR [rax],es
	...

Disassembly of section .group:

0000000000000000 <wm4.endian.h.27.4c4f94262c4eaee2982fe00ed1b4f173>:
   0:	01 00                	add    DWORD PTR [rax],eax
   2:	00 00                	add    BYTE PTR [rax],al
   4:	8d 00                	lea    eax,[rax]
   6:	00 00                	add    BYTE PTR [rax],al
   8:	8e 00                	mov    es,WORD PTR [rax]
	...

Disassembly of section .group:

0000000000000000 <wm4.byteswap.h.24.5363c019348146aada5aeadf51456576>:
   0:	01 00                	add    DWORD PTR [rax],eax
   2:	00 00                	add    BYTE PTR [rax],al
   4:	8f 00                	pop    QWORD PTR [rax]
   6:	00 00                	add    BYTE PTR [rax],al
   8:	90                   	nop
   9:	00 00                	add    BYTE PTR [rax],al
	...

Disassembly of section .group:

0000000000000000 <wm4.endian.h.39.30a606dbd99b6c3df61c1f06dbdabd4e>:
   0:	01 00                	add    DWORD PTR [rax],eax
   2:	00 00                	add    BYTE PTR [rax],al
   4:	91                   	xchg   ecx,eax
   5:	00 00                	add    BYTE PTR [rax],al
   7:	00                   	.byte 0
   8:	92                   	xchg   edx,eax
   9:	00 00                	add    BYTE PTR [rax],al
	...

Disassembly of section .group:

0000000000000000 <wm4.select.h.25.df647f04fce2d846f134ede6a14ddf91>:
   0:	01 00                	add    DWORD PTR [rax],eax
   2:	00 00                	add    BYTE PTR [rax],al
   4:	93                   	xchg   ebx,eax
   5:	00 00                	add    BYTE PTR [rax],al
   7:	00                   	.byte 0
   8:	94                   	xchg   esp,eax
   9:	00 00                	add    BYTE PTR [rax],al
	...

Disassembly of section .group:

0000000000000000 <wm4.__sigset_t.h.2.6b1ab6ff3d7b8fd9c0c42b0d80afbd80>:
   0:	01 00                	add    DWORD PTR [rax],eax
   2:	00 00                	add    BYTE PTR [rax],al
   4:	95                   	xchg   ebp,eax
   5:	00 00                	add    BYTE PTR [rax],al
   7:	00                   	.byte 0
   8:	96                   	xchg   esi,eax
   9:	00 00                	add    BYTE PTR [rax],al
	...

Disassembly of section .group:

0000000000000000 <wm4.select.h.44.887a4ff60aa97fcd9c1be017735e1675>:
   0:	01 00                	add    DWORD PTR [rax],eax
   2:	00 00                	add    BYTE PTR [rax],al
   4:	97                   	xchg   edi,eax
   5:	00 00                	add    BYTE PTR [rax],al
   7:	00                   	.byte 0
   8:	98                   	cwde
   9:	00 00                	add    BYTE PTR [rax],al
	...

Disassembly of section .group:

0000000000000000 <wm4.types.h.186.489a4ed8f2d29cd358843490f54ddea5>:
   0:	01 00                	add    DWORD PTR [rax],eax
   2:	00 00                	add    BYTE PTR [rax],al
   4:	99                   	cdq
   5:	00 00                	add    BYTE PTR [rax],al
   7:	00                   	.byte 0
   8:	9a                   	(bad)
   9:	00 00                	add    BYTE PTR [rax],al
	...

Disassembly of section .group:

0000000000000000 <wm4.pthreadtypesarch.h.25.6063cba99664c916e22d3a912bcc348a>:
   0:	01 00                	add    DWORD PTR [rax],eax
   2:	00 00                	add    BYTE PTR [rax],al
   4:	9b                   	fwait
   5:	00 00                	add    BYTE PTR [rax],al
   7:	00                   	.byte 0
   8:	9c                   	pushf
   9:	00 00                	add    BYTE PTR [rax],al
	...

Disassembly of section .group:

0000000000000000 <wm4.struct_mutex.h.20.e3a8115b63766b45e6c385382ab210bd>:
   0:	01 00                	add    DWORD PTR [rax],eax
   2:	00 00                	add    BYTE PTR [rax],al
   4:	9d                   	popf
   5:	00 00                	add    BYTE PTR [rax],al
   7:	00                   	.byte 0
   8:	9e                   	sahf
   9:	00 00                	add    BYTE PTR [rax],al
	...

Disassembly of section .group:

0000000000000000 <wm4.struct_rwlock.h.21.0254880f2904e3833fb8ae683e0f0330>:
   0:	01 00                	add    DWORD PTR [rax],eax
   2:	00 00                	add    BYTE PTR [rax],al
   4:	9f                   	lahf
   5:	00 00                	add    BYTE PTR [rax],al
   7:	00                   	.byte 0
   8:	a0                   	.byte 0xa0
   9:	00 00                	add    BYTE PTR [rax],al
	...

Disassembly of section .group:

0000000000000000 <wm4.alloca.h.19.edefa922a76c1cbaaf1e416903ba2d1c>:
   0:	01 00                	add    DWORD PTR [rax],eax
   2:	00 00                	add    BYTE PTR [rax],al
   4:	a1                   	.byte 0xa1
   5:	00 00                	add    BYTE PTR [rax],al
   7:	00                   	.byte 0
   8:	a2                   	.byte 0xa2
   9:	00 00                	add    BYTE PTR [rax],al
	...

Disassembly of section .group:

0000000000000000 <wm4.alloca.h.29.156e12058824cc23d961c4d3b13031f6>:
   0:	01 00                	add    DWORD PTR [rax],eax
   2:	00 00                	add    BYTE PTR [rax],al
   4:	a3                   	.byte 0xa3
   5:	00 00                	add    BYTE PTR [rax],al
   7:	00                   	.byte 0
   8:	a4                   	movs   BYTE PTR es:[rdi],BYTE PTR ds:[rsi]
   9:	00 00                	add    BYTE PTR [rax],al
	...

Disassembly of section .group:

0000000000000000 <wm4.arena.h.8.61aa63b2124f204efe5b3e93f05ff79c>:
   0:	01 00                	add    DWORD PTR [rax],eax
   2:	00 00                	add    BYTE PTR [rax],al
   4:	a5                   	movs   DWORD PTR es:[rdi],DWORD PTR ds:[rsi]
   5:	00 00                	add    BYTE PTR [rax],al
   7:	00                   	.byte 0
   8:	a6                   	cmps   BYTE PTR ds:[rsi],BYTE PTR es:[rdi]
   9:	00 00                	add    BYTE PTR [rax],al
	...

Disassembly of section .group:

0000000000000000 <wm4.stddef.h.39.794fa375de48dda278c4aebb5c74aa5b>:
   0:	01 00                	add    DWORD PTR [rax],eax
   2:	00 00                	add    BYTE PTR [rax],al
   4:	a7                   	cmps   DWORD PTR ds:[rsi],DWORD PTR es:[rdi]
   5:	00 00                	add    BYTE PTR [rax],al
   7:	00                   	.byte 0
   8:	a8 00                	test   al,0x0
	...

Disassembly of section .group:

0000000000000000 <wm4.string.h.23.93403f89af7dba8212345449bb14b09d>:
   0:	01 00                	add    DWORD PTR [rax],eax
   2:	00 00                	add    BYTE PTR [rax],al
   4:	a9 00 00 00 aa       	test   eax,0xaa000000
   9:	00 00                	add    BYTE PTR [rax],al
	...

Disassembly of section .group:

0000000000000000 <wm4.string.h.31.e39a94e203ad4e1d978c0fc68ce016ee>:
   0:	01 00                	add    DWORD PTR [rax],eax
   2:	00 00                	add    BYTE PTR [rax],al
   4:	ab                   	stos   DWORD PTR es:[rdi],eax
   5:	00 00                	add    BYTE PTR [rax],al
   7:	00                   	.byte 0
   8:	ac                   	lods   al,BYTE PTR ds:[rsi]
   9:	00 00                	add    BYTE PTR [rax],al
	...

Disassembly of section .group:

0000000000000000 <wm4.stddef.h.158.eec8bf00b5213f43d095cb984c5f22e3>:
   0:	01 00                	add    DWORD PTR [rax],eax
   2:	00 00                	add    BYTE PTR [rax],al
   4:	ad                   	lods   eax,DWORD PTR ds:[rsi]
   5:	00 00                	add    BYTE PTR [rax],al
   7:	00                   	.byte 0
   8:	ae                   	scas   al,BYTE PTR es:[rdi]
   9:	00 00                	add    BYTE PTR [rax],al
	...

Disassembly of section .group:

0000000000000000 <wm4.strings.h.19.a259f126920b1bb5ef76bc62b3984a3c>:
   0:	01 00                	add    DWORD PTR [rax],eax
   2:	00 00                	add    BYTE PTR [rax],al
   4:	af                   	scas   eax,DWORD PTR es:[rdi]
   5:	00 00                	add    BYTE PTR [rax],al
   7:	00                   	.byte 0
   8:	b0 00                	mov    al,0x0
	...

Disassembly of section .group:

0000000000000000 <wm4.array.h.11.3a4b159191123d0bd9f33190952487e0>:
   0:	01 00                	add    DWORD PTR [rax],eax
   2:	00 00                	add    BYTE PTR [rax],al
   4:	b1 00                	mov    cl,0x0
   6:	00 00                	add    BYTE PTR [rax],al
   8:	b2 00                	mov    dl,0x0
	...

Disassembly of section .group:

0000000000000000 <wm4.unittest.h.25.262f9fc416bd2d60035186413883bbac>:
   0:	01 00                	add    DWORD PTR [rax],eax
   2:	00 00                	add    BYTE PTR [rax],al
   4:	b3 00                	mov    bl,0x0
   6:	00 00                	add    BYTE PTR [rax],al
   8:	b4 00                	mov    ah,0x0
	...

Disassembly of section .text:

0000000000000000 <nextArrayAllocSize>:
       0:	55                   	push   rbp
       1:	48 89 e5             	mov    rbp,rsp
       4:	48 89 7d f8          	mov    QWORD PTR [rbp-0x8],rdi
       8:	48 83 7d f8 00       	cmp    QWORD PTR [rbp-0x8],0x0
       d:	74 09                	je     18 <nextArrayAllocSize+0x18>
       f:	48 8b 45 f8          	mov    rax,QWORD PTR [rbp-0x8]
      13:	48 01 c0             	add    rax,rax
      16:	eb 05                	jmp    1d <nextArrayAllocSize+0x1d>
      18:	b8 01 00 00 00       	mov    eax,0x1
      1d:	5d                   	pop    rbp
      1e:	c3                   	ret

000000000000001f <reallocArray>:
      1f:	55                   	push   rbp
      20:	48 89 e5             	mov    rbp,rsp
      23:	48 83 ec 30          	sub    rsp,0x30
      27:	48 89 7d e8          	mov    QWORD PTR [rbp-0x18],rdi
      2b:	48 89 75 e0          	mov    QWORD PTR [rbp-0x20],rsi
      2f:	48 89 55 d8          	mov    QWORD PTR [rbp-0x28],rdx
      33:	48 89 4d d0          	mov    QWORD PTR [rbp-0x30],rcx
      37:	48 8b 45 d0          	mov    rax,QWORD PTR [rbp-0x30]
      3b:	89 c2                	mov    edx,eax
      3d:	48 8d 45 e8          	lea    rax,[rbp-0x18]
      41:	89 d6                	mov    esi,edx
      43:	48 89 c7             	mov    rdi,rax
      46:	e8 00 00 00 00       	call   4b <reallocArray+0x2c>
      4b:	48 89 45 f8          	mov    QWORD PTR [rbp-0x8],rax
      4f:	48 8b 55 d8          	mov    rdx,QWORD PTR [rbp-0x28]
      53:	48 8b 4d e0          	mov    rcx,QWORD PTR [rbp-0x20]
      57:	48 8b 45 f8          	mov    rax,QWORD PTR [rbp-0x8]
      5b:	48 89 ce             	mov    rsi,rcx
      5e:	48 89 c7             	mov    rdi,rax
      61:	e8 00 00 00 00       	call   66 <reallocArray+0x47>
      66:	48 8b 45 f8          	mov    rax,QWORD PTR [rbp-0x8]
      6a:	c9                   	leave
      6b:	c3                   	ret

000000000000006c <setUp>:
      6c:	55                   	push   rbp
      6d:	48 89 e5             	mov    rbp,rsp
      70:	48 89 7d f8          	mov    QWORD PTR [rbp-0x8],rdi
      74:	48 8b 45 f8          	mov    rax,QWORD PTR [rbp-0x8]
      78:	48 89 05 00 00 00 00 	mov    QWORD PTR [rip+0x0],rax        # 7f <setUp+0x13>
      7f:	48 c7 05 00 00 00 00 	mov    QWORD PTR [rip+0x0],0x0        # 8a <setUp+0x1e>
      86:	00 00 00 00 
      8a:	48 c7 05 00 00 00 00 	mov    QWORD PTR [rip+0x0],0x0        # 95 <setUp+0x29>
      91:	00 00 00 00 
      95:	48 c7 05 00 00 00 00 	mov    QWORD PTR [rip+0x0],0x0        # a0 <setUp+0x34>
      9c:	00 00 00 00 
      a0:	48 8b 05 00 00 00 00 	mov    rax,QWORD PTR [rip+0x0]        # a7 <setUp+0x3b>
      a7:	48 89 05 00 00 00 00 	mov    QWORD PTR [rip+0x0],rax        # ae <setUp+0x42>
      ae:	90                   	nop
      af:	5d                   	pop    rbp
      b0:	c3                   	ret

00000000000000b1 <runTest>:
      b1:	55                   	push   rbp
      b2:	48 89 e5             	mov    rbp,rsp
      b5:	48 83 ec 20          	sub    rsp,0x20
      b9:	48 8b 05 00 00 00 00 	mov    rax,QWORD PTR [rip+0x0]        # c0 <runTest+0xf>
      c0:	48 85 c0             	test   rax,rax
      c3:	75 19                	jne    de <runTest+0x2d>
      c5:	48 8d 05 00 00 00 00 	lea    rax,[rip+0x0]        # cc <runTest+0x1b>
      cc:	48 89 c7             	mov    rdi,rax
      cf:	e8 00 00 00 00       	call   d4 <runTest+0x23>
      d4:	b8 ff ff ff ff       	mov    eax,0xffffffff
      d9:	e9 5d 02 00 00       	jmp    33b <runTest+0x28a>
      de:	c7 45 e8 00 00 00 00 	mov    DWORD PTR [rbp-0x18],0x0
      e5:	c7 45 ec 00 00 00 00 	mov    DWORD PTR [rbp-0x14],0x0
      ec:	e9 f3 01 00 00       	jmp    2e4 <runTest+0x233>
      f1:	48 8b 05 00 00 00 00 	mov    rax,QWORD PTR [rip+0x0]        # f8 <runTest+0x47>
      f8:	48 89 c7             	mov    rdi,rax
      fb:	e8 00 00 00 00       	call   100 <runTest+0x4f>
     100:	48 89 45 f8          	mov    QWORD PTR [rbp-0x8],rax
     104:	48 c7 05 00 00 00 00 	mov    QWORD PTR [rip+0x0],0x0        # 10f <runTest+0x5e>
     10b:	00 00 00 00 
     10f:	48 c7 05 00 00 00 00 	mov    QWORD PTR [rip+0x0],0x0        # 11a <runTest+0x69>
     116:	00 00 00 00 
     11a:	48 c7 05 00 00 00 00 	mov    QWORD PTR [rip+0x0],0x0        # 125 <runTest+0x74>
     121:	00 00 00 00 
     125:	48 8b 05 00 00 00 00 	mov    rax,QWORD PTR [rip+0x0]        # 12c <runTest+0x7b>
     12c:	48 89 05 00 00 00 00 	mov    QWORD PTR [rip+0x0],rax        # 133 <runTest+0x82>
     133:	c6 45 e7 01          	mov    BYTE PTR [rbp-0x19],0x1
     137:	48 8b 0d 00 00 00 00 	mov    rcx,QWORD PTR [rip+0x0]        # 13e <runTest+0x8d>
     13e:	8b 45 ec             	mov    eax,DWORD PTR [rbp-0x14]
     141:	48 63 d0             	movsxd rdx,eax
     144:	48 89 d0             	mov    rax,rdx
     147:	48 01 c0             	add    rax,rax
     14a:	48 01 d0             	add    rax,rdx
     14d:	48 c1 e0 03          	shl    rax,0x3
     151:	48 01 c8             	add    rax,rcx
     154:	48 8b 40 08          	mov    rax,QWORD PTR [rax+0x8]
     158:	48 89 c6             	mov    rsi,rax
     15b:	48 8d 05 00 00 00 00 	lea    rax,[rip+0x0]        # 162 <runTest+0xb1>
     162:	48 89 c7             	mov    rdi,rax
     165:	b8 00 00 00 00       	mov    eax,0x0
     16a:	e8 00 00 00 00       	call   16f <runTest+0xbe>
     16f:	48 8b 0d 00 00 00 00 	mov    rcx,QWORD PTR [rip+0x0]        # 176 <runTest+0xc5>
     176:	8b 45 ec             	mov    eax,DWORD PTR [rbp-0x14]
     179:	48 63 d0             	movsxd rdx,eax
     17c:	48 89 d0             	mov    rax,rdx
     17f:	48 01 c0             	add    rax,rax
     182:	48 01 d0             	add    rax,rdx
     185:	48 c1 e0 03          	shl    rax,0x3
     189:	48 01 c8             	add    rax,rcx
     18c:	48 8b 10             	mov    rdx,QWORD PTR [rax]
     18f:	48 8b 05 00 00 00 00 	mov    rax,QWORD PTR [rip+0x0]        # 196 <runTest+0xe5>
     196:	48 89 c7             	mov    rdi,rax
     199:	b8 00 00 00 00       	mov    eax,0x0
     19e:	ff d2                	call   rdx
     1a0:	c7 45 f0 00 00 00 00 	mov    DWORD PTR [rbp-0x10],0x0
     1a7:	eb 24                	jmp    1cd <runTest+0x11c>
     1a9:	48 8b 05 00 00 00 00 	mov    rax,QWORD PTR [rip+0x0]        # 1b0 <runTest+0xff>
     1b0:	8b 55 f0             	mov    edx,DWORD PTR [rbp-0x10]
     1b3:	48 63 d2             	movsxd rdx,edx
     1b6:	48 c1 e2 04          	shl    rdx,0x4
     1ba:	48 01 d0             	add    rax,rdx
     1bd:	0f b6 40 08          	movzx  eax,BYTE PTR [rax+0x8]
     1c1:	84 c0                	test   al,al
     1c3:	75 04                	jne    1c9 <runTest+0x118>
     1c5:	c6 45 e7 00          	mov    BYTE PTR [rbp-0x19],0x0
     1c9:	83 45 f0 01          	add    DWORD PTR [rbp-0x10],0x1
     1cd:	8b 45 f0             	mov    eax,DWORD PTR [rbp-0x10]
     1d0:	48 63 d0             	movsxd rdx,eax
     1d3:	48 8b 05 00 00 00 00 	mov    rax,QWORD PTR [rip+0x0]        # 1da <runTest+0x129>
     1da:	48 39 c2             	cmp    rdx,rax
     1dd:	72 ca                	jb     1a9 <runTest+0xf8>
     1df:	80 7d e7 00          	cmp    BYTE PTR [rbp-0x19],0x0
     1e3:	74 18                	je     1fd <runTest+0x14c>
     1e5:	48 8d 05 00 00 00 00 	lea    rax,[rip+0x0]        # 1ec <runTest+0x13b>
     1ec:	48 89 c7             	mov    rdi,rax
     1ef:	e8 00 00 00 00       	call   1f4 <runTest+0x143>
     1f4:	83 45 e8 01          	add    DWORD PTR [rbp-0x18],0x1
     1f8:	e9 ac 00 00 00       	jmp    2a9 <runTest+0x1f8>
     1fd:	48 8d 05 00 00 00 00 	lea    rax,[rip+0x0]        # 204 <runTest+0x153>
     204:	48 89 c7             	mov    rdi,rax
     207:	e8 00 00 00 00       	call   20c <runTest+0x15b>
     20c:	c7 45 f4 00 00 00 00 	mov    DWORD PTR [rbp-0xc],0x0
     213:	eb 7e                	jmp    293 <runTest+0x1e2>
     215:	48 8b 05 00 00 00 00 	mov    rax,QWORD PTR [rip+0x0]        # 21c <runTest+0x16b>
     21c:	8b 55 f4             	mov    edx,DWORD PTR [rbp-0xc]
     21f:	48 63 d2             	movsxd rdx,edx
     222:	48 c1 e2 04          	shl    rdx,0x4
     226:	48 01 d0             	add    rax,rdx
     229:	0f b6 40 08          	movzx  eax,BYTE PTR [rax+0x8]
     22d:	84 c0                	test   al,al
     22f:	74 30                	je     261 <runTest+0x1b0>
     231:	48 8b 05 00 00 00 00 	mov    rax,QWORD PTR [rip+0x0]        # 238 <runTest+0x187>
     238:	8b 55 f4             	mov    edx,DWORD PTR [rbp-0xc]
     23b:	48 63 d2             	movsxd rdx,edx
     23e:	48 c1 e2 04          	shl    rdx,0x4
     242:	48 01 d0             	add    rax,rdx
     245:	48 8b 00             	mov    rax,QWORD PTR [rax]
     248:	48 89 c6             	mov    rsi,rax
     24b:	48 8d 05 00 00 00 00 	lea    rax,[rip+0x0]        # 252 <runTest+0x1a1>
     252:	48 89 c7             	mov    rdi,rax
     255:	b8 00 00 00 00       	mov    eax,0x0
     25a:	e8 00 00 00 00       	call   25f <runTest+0x1ae>
     25f:	eb 2e                	jmp    28f <runTest+0x1de>
     261:	48 8b 05 00 00 00 00 	mov    rax,QWORD PTR [rip+0x0]        # 268 <runTest+0x1b7>
     268:	8b 55 f4             	mov    edx,DWORD PTR [rbp-0xc]
     26b:	48 63 d2             	movsxd rdx,edx
     26e:	48 c1 e2 04          	shl    rdx,0x4
     272:	48 01 d0             	add    rax,rdx
     275:	48 8b 00             	mov    rax,QWORD PTR [rax]
     278:	48 89 c6             	mov    rsi,rax
     27b:	48 8d 05 00 00 00 00 	lea    rax,[rip+0x0]        # 282 <runTest+0x1d1>
     282:	48 89 c7             	mov    rdi,rax
     285:	b8 00 00 00 00       	mov    eax,0x0
     28a:	e8 00 00 00 00       	call   28f <runTest+0x1de>
     28f:	83 45 f4 01          	add    DWORD PTR [rbp-0xc],0x1
     293:	8b 45 f4             	mov    eax,DWORD PTR [rbp-0xc]
     296:	48 63 d0             	movsxd rdx,eax
     299:	48 8b 05 00 00 00 00 	mov    rax,QWORD PTR [rip+0x0]        # 2a0 <runTest+0x1ef>
     2a0:	48 39 c2             	cmp    rdx,rax
     2a3:	0f 82 6c ff ff ff    	jb     215 <runTest+0x164>
     2a9:	48 c7 05 00 00 00 00 	mov    QWORD PTR [rip+0x0],0x0        # 2b4 <runTest+0x203>
     2b0:	00 00 00 00 
     2b4:	48 c7 05 00 00 00 00 	mov    QWORD PTR [rip+0x0],0x0        # 2bf <runTest+0x20e>
     2bb:	00 00 00 00 
     2bf:	48 c7 05 00 00 00 00 	mov    QWORD PTR [rip+0x0],0x0        # 2ca <runTest+0x219>
     2c6:	00 00 00 00 
     2ca:	48 8b 45 f8          	mov    rax,QWORD PTR [rbp-0x8]
     2ce:	48 89 c6             	mov    rsi,rax
     2d1:	48 8d 05 00 00 00 00 	lea    rax,[rip+0x0]        # 2d8 <runTest+0x227>
     2d8:	48 89 c7             	mov    rdi,rax
     2db:	e8 00 00 00 00       	call   2e0 <runTest+0x22f>
     2e0:	83 45 ec 01          	add    DWORD PTR [rbp-0x14],0x1
     2e4:	8b 45 ec             	mov    eax,DWORD PTR [rbp-0x14]
     2e7:	48 63 d0             	movsxd rdx,eax
     2ea:	48 8b 05 00 00 00 00 	mov    rax,QWORD PTR [rip+0x0]        # 2f1 <runTest+0x240>
     2f1:	48 39 c2             	cmp    rdx,rax
     2f4:	0f 82 f7 fd ff ff    	jb     f1 <runTest+0x40>
     2fa:	48 8b 05 00 00 00 00 	mov    rax,QWORD PTR [rip+0x0]        # 301 <runTest+0x250>
     301:	89 c2                	mov    edx,eax
     303:	8b 45 e8             	mov    eax,DWORD PTR [rbp-0x18]
     306:	89 c6                	mov    esi,eax
     308:	48 8d 05 00 00 00 00 	lea    rax,[rip+0x0]        # 30f <runTest+0x25e>
     30f:	48 89 c7             	mov    rdi,rax
     312:	b8 00 00 00 00       	mov    eax,0x0
     317:	e8 00 00 00 00       	call   31c <runTest+0x26b>
     31c:	48 8d 05 00 00 00 00 	lea    rax,[rip+0x0]        # 323 <runTest+0x272>
     323:	48 89 c7             	mov    rdi,rax
     326:	e8 00 00 00 00       	call   32b <runTest+0x27a>
     32b:	48 8b 05 00 00 00 00 	mov    rax,QWORD PTR [rip+0x0]        # 332 <runTest+0x281>
     332:	39 45 e8             	cmp    DWORD PTR [rbp-0x18],eax
     335:	0f 94 c0             	sete   al
     338:	0f b6 c0             	movzx  eax,al
     33b:	c9                   	leave
     33c:	c3                   	ret

000000000000033d <twoSumN2C>:
     33d:	55                   	push   rbp
     33e:	48 89 e5             	mov    rbp,rsp
     341:	48 83 ec 40          	sub    rsp,0x40
     345:	48 89 7d d8          	mov    QWORD PTR [rbp-0x28],rdi
     349:	89 75 d4             	mov    DWORD PTR [rbp-0x2c],esi
     34c:	89 55 d0             	mov    DWORD PTR [rbp-0x30],edx
     34f:	48 89 4d c8          	mov    QWORD PTR [rbp-0x38],rcx
     353:	4c 89 45 c0          	mov    QWORD PTR [rbp-0x40],r8
     357:	48 8b 45 c8          	mov    rax,QWORD PTR [rbp-0x38]
     35b:	c7 00 00 00 00 00    	mov    DWORD PTR [rax],0x0
     361:	c7 45 ec 00 00 00 00 	mov    DWORD PTR [rbp-0x14],0x0
     368:	e9 8f 00 00 00       	jmp    3fc <twoSumN2C+0xbf>
     36d:	8b 45 ec             	mov    eax,DWORD PTR [rbp-0x14]
     370:	83 c0 01             	add    eax,0x1
     373:	89 45 f0             	mov    DWORD PTR [rbp-0x10],eax
     376:	eb 78                	jmp    3f0 <twoSumN2C+0xb3>
     378:	8b 45 ec             	mov    eax,DWORD PTR [rbp-0x14]
     37b:	48 98                	cdqe
     37d:	48 8d 14 85 00 00 00 	lea    rdx,[rax*4+0x0]
     384:	00 
     385:	48 8b 45 d8          	mov    rax,QWORD PTR [rbp-0x28]
     389:	48 01 d0             	add    rax,rdx
     38c:	8b 10                	mov    edx,DWORD PTR [rax]
     38e:	8b 45 f0             	mov    eax,DWORD PTR [rbp-0x10]
     391:	48 98                	cdqe
     393:	48 8d 0c 85 00 00 00 	lea    rcx,[rax*4+0x0]
     39a:	00 
     39b:	48 8b 45 d8          	mov    rax,QWORD PTR [rbp-0x28]
     39f:	48 01 c8             	add    rax,rcx
     3a2:	8b 00                	mov    eax,DWORD PTR [rax]
     3a4:	01 d0                	add    eax,edx
     3a6:	89 45 f4             	mov    DWORD PTR [rbp-0xc],eax
     3a9:	8b 45 f4             	mov    eax,DWORD PTR [rbp-0xc]
     3ac:	3b 45 d0             	cmp    eax,DWORD PTR [rbp-0x30]
     3af:	75 3b                	jne    3ec <twoSumN2C+0xaf>
     3b1:	48 8b 45 c8          	mov    rax,QWORD PTR [rbp-0x38]
     3b5:	c7 00 02 00 00 00    	mov    DWORD PTR [rax],0x2
     3bb:	48 8d 45 c0          	lea    rax,[rbp-0x40]
     3bf:	be 08 00 00 00       	mov    esi,0x8
     3c4:	48 89 c7             	mov    rdi,rax
     3c7:	e8 00 00 00 00       	call   3cc <twoSumN2C+0x8f>
     3cc:	48 89 45 f8          	mov    QWORD PTR [rbp-0x8],rax
     3d0:	48 8b 45 f8          	mov    rax,QWORD PTR [rbp-0x8]
     3d4:	8b 55 ec             	mov    edx,DWORD PTR [rbp-0x14]
     3d7:	89 10                	mov    DWORD PTR [rax],edx
     3d9:	48 8b 45 f8          	mov    rax,QWORD PTR [rbp-0x8]
     3dd:	48 8d 50 04          	lea    rdx,[rax+0x4]
     3e1:	8b 45 f0             	mov    eax,DWORD PTR [rbp-0x10]
     3e4:	89 02                	mov    DWORD PTR [rdx],eax
     3e6:	48 8b 45 f8          	mov    rax,QWORD PTR [rbp-0x8]
     3ea:	eb 21                	jmp    40d <twoSumN2C+0xd0>
     3ec:	83 45 f0 01          	add    DWORD PTR [rbp-0x10],0x1
     3f0:	8b 45 f0             	mov    eax,DWORD PTR [rbp-0x10]
     3f3:	3b 45 d4             	cmp    eax,DWORD PTR [rbp-0x2c]
     3f6:	7c 80                	jl     378 <twoSumN2C+0x3b>
     3f8:	83 45 ec 01          	add    DWORD PTR [rbp-0x14],0x1
     3fc:	8b 45 ec             	mov    eax,DWORD PTR [rbp-0x14]
     3ff:	3b 45 d4             	cmp    eax,DWORD PTR [rbp-0x2c]
     402:	0f 8c 65 ff ff ff    	jl     36d <twoSumN2C+0x30>
     408:	b8 00 00 00 00       	mov    eax,0x0
     40d:	c9                   	leave
     40e:	c3                   	ret

000000000000040f <testAddValues>:
     40f:	55                   	push   rbp
     410:	48 89 e5             	mov    rbp,rsp
     413:	48 83 ec 20          	sub    rsp,0x20
     417:	48 89 7d e8          	mov    QWORD PTR [rbp-0x18],rdi
     41b:	48 8d 05 00 00 00 00 	lea    rax,[rip+0x0]        # 422 <testAddValues+0x13>
     422:	48 89 45 f0          	mov    QWORD PTR [rbp-0x10],rax
     426:	be 0a 00 00 00       	mov    esi,0xa
     42b:	bf 05 00 00 00       	mov    edi,0x5
     430:	e8 00 00 00 00       	call   435 <testAddValues+0x26>
     435:	88 45 f8             	mov    BYTE PTR [rbp-0x8],al
     438:	48 8b 15 00 00 00 00 	mov    rdx,QWORD PTR [rip+0x0]        # 43f <testAddValues+0x30>
     43f:	48 8b 05 00 00 00 00 	mov    rax,QWORD PTR [rip+0x0]        # 446 <testAddValues+0x37>
     446:	48 39 c2             	cmp    rdx,rax
     449:	75 57                	jne    4a2 <testAddValues+0x93>
     44b:	48 8b 05 00 00 00 00 	mov    rax,QWORD PTR [rip+0x0]        # 452 <testAddValues+0x43>
     452:	48 89 c7             	mov    rdi,rax
     455:	e8 a6 fb ff ff       	call   0 <nextArrayAllocSize>
     45a:	48 c1 e0 04          	shl    rax,0x4
     45e:	48 89 c1             	mov    rcx,rax
     461:	48 8b 05 00 00 00 00 	mov    rax,QWORD PTR [rip+0x0]        # 468 <testAddValues+0x59>
     468:	48 c1 e0 04          	shl    rax,0x4
     46c:	48 89 c2             	mov    rdx,rax
     46f:	48 8b 35 00 00 00 00 	mov    rsi,QWORD PTR [rip+0x0]        # 476 <testAddValues+0x67>
     476:	48 8b 05 00 00 00 00 	mov    rax,QWORD PTR [rip+0x0]        # 47d <testAddValues+0x6e>
     47d:	48 89 c7             	mov    rdi,rax
     480:	e8 9a fb ff ff       	call   1f <reallocArray>
     485:	48 89 05 00 00 00 00 	mov    QWORD PTR [rip+0x0],rax        # 48c <testAddValues+0x7d>
     48c:	48 8b 05 00 00 00 00 	mov    rax,QWORD PTR [rip+0x0]        # 493 <testAddValues+0x84>
     493:	48 89 c7             	mov    rdi,rax
     496:	e8 65 fb ff ff       	call   0 <nextArrayAllocSize>
     49b:	48 89 05 00 00 00 00 	mov    QWORD PTR [rip+0x0],rax        # 4a2 <testAddValues+0x93>
     4a2:	48 8b 05 00 00 00 00 	mov    rax,QWORD PTR [rip+0x0]        # 4a9 <testAddValues+0x9a>
     4a9:	48 8b 15 00 00 00 00 	mov    rdx,QWORD PTR [rip+0x0]        # 4b0 <testAddValues+0xa1>
     4b0:	48 c1 e2 04          	shl    rdx,0x4
     4b4:	48 8d 0c 10          	lea    rcx,[rax+rdx*1]
     4b8:	48 8b 45 f0          	mov    rax,QWORD PTR [rbp-0x10]
     4bc:	48 8b 55 f8          	mov    rdx,QWORD PTR [rbp-0x8]
     4c0:	48 89 01             	mov    QWORD PTR [rcx],rax
     4c3:	48 89 51 08          	mov    QWORD PTR [rcx+0x8],rdx
     4c7:	48 8b 05 00 00 00 00 	mov    rax,QWORD PTR [rip+0x0]        # 4ce <testAddValues+0xbf>
     4ce:	48 83 c0 01          	add    rax,0x1
     4d2:	48 89 05 00 00 00 00 	mov    QWORD PTR [rip+0x0],rax        # 4d9 <testAddValues+0xca>
     4d9:	48 8d 05 00 00 00 00 	lea    rax,[rip+0x0]        # 4e0 <testAddValues+0xd1>
     4e0:	48 89 45 f0          	mov    QWORD PTR [rbp-0x10],rax
     4e4:	be 0a 00 00 00       	mov    esi,0xa
     4e9:	bf cd 00 00 00       	mov    edi,0xcd
     4ee:	e8 00 00 00 00       	call   4f3 <testAddValues+0xe4>
     4f3:	88 45 f8             	mov    BYTE PTR [rbp-0x8],al
     4f6:	48 8b 15 00 00 00 00 	mov    rdx,QWORD PTR [rip+0x0]        # 4fd <testAddValues+0xee>
     4fd:	48 8b 05 00 00 00 00 	mov    rax,QWORD PTR [rip+0x0]        # 504 <testAddValues+0xf5>
     504:	48 39 c2             	cmp    rdx,rax
     507:	75 57                	jne    560 <testAddValues+0x151>
     509:	48 8b 05 00 00 00 00 	mov    rax,QWORD PTR [rip+0x0]        # 510 <testAddValues+0x101>
     510:	48 89 c7             	mov    rdi,rax
     513:	e8 e8 fa ff ff       	call   0 <nextArrayAllocSize>
     518:	48 c1 e0 04          	shl    rax,0x4
     51c:	48 89 c1             	mov    rcx,rax
     51f:	48 8b 05 00 00 00 00 	mov    rax,QWORD PTR [rip+0x0]        # 526 <testAddValues+0x117>
     526:	48 c1 e0 04          	shl    rax,0x4
     52a:	48 89 c2             	mov    rdx,rax
     52d:	48 8b 35 00 00 00 00 	mov    rsi,QWORD PTR [rip+0x0]        # 534 <testAddValues+0x125>
     534:	48 8b 05 00 00 00 00 	mov    rax,QWORD PTR [rip+0x0]        # 53b <testAddValues+0x12c>
     53b:	48 89 c7             	mov    rdi,rax
     53e:	e8 dc fa ff ff       	call   1f <reallocArray>
     543:	48 89 05 00 00 00 00 	mov    QWORD PTR [rip+0x0],rax        # 54a <testAddValues+0x13b>
     54a:	48 8b 05 00 00 00 00 	mov    rax,QWORD PTR [rip+0x0]        # 551 <testAddValues+0x142>
     551:	48 89 c7             	mov    rdi,rax
     554:	e8 a7 fa ff ff       	call   0 <nextArrayAllocSize>
     559:	48 89 05 00 00 00 00 	mov    QWORD PTR [rip+0x0],rax        # 560 <testAddValues+0x151>
     560:	48 8b 05 00 00 00 00 	mov    rax,QWORD PTR [rip+0x0]        # 567 <testAddValues+0x158>
     567:	48 8b 15 00 00 00 00 	mov    rdx,QWORD PTR [rip+0x0]        # 56e <testAddValues+0x15f>
     56e:	48 c1 e2 04          	shl    rdx,0x4
     572:	48 8d 0c 10          	lea    rcx,[rax+rdx*1]
     576:	48 8b 45 f0          	mov    rax,QWORD PTR [rbp-0x10]
     57a:	48 8b 55 f8          	mov    rdx,QWORD PTR [rbp-0x8]
     57e:	48 89 01             	mov    QWORD PTR [rcx],rax
     581:	48 89 51 08          	mov    QWORD PTR [rcx+0x8],rdx
     585:	48 8b 05 00 00 00 00 	mov    rax,QWORD PTR [rip+0x0]        # 58c <testAddValues+0x17d>
     58c:	48 83 c0 01          	add    rax,0x1
     590:	48 89 05 00 00 00 00 	mov    QWORD PTR [rip+0x0],rax        # 597 <testAddValues+0x188>
     597:	90                   	nop
     598:	c9                   	leave
     599:	c3                   	ret

000000000000059a <testTwoSumn2>:
     59a:	55                   	push   rbp
     59b:	48 89 e5             	mov    rbp,rsp
     59e:	48 81 ec b0 00 00 00 	sub    rsp,0xb0
     5a5:	48 89 bd 58 ff ff ff 	mov    QWORD PTR [rbp-0xa8],rdi
     5ac:	64 48 8b 04 25 28 00 	mov    rax,QWORD PTR fs:0x28
     5b3:	00 00 
     5b5:	48 89 45 f8          	mov    QWORD PTR [rbp-0x8],rax
     5b9:	31 c0                	xor    eax,eax
     5bb:	c7 45 a0 01 00 00 00 	mov    DWORD PTR [rbp-0x60],0x1
     5c2:	c7 45 a4 02 00 00 00 	mov    DWORD PTR [rbp-0x5c],0x2
     5c9:	c7 45 a8 03 00 00 00 	mov    DWORD PTR [rbp-0x58],0x3
     5d0:	c7 45 ac 05 00 00 00 	mov    DWORD PTR [rbp-0x54],0x5
     5d7:	48 8d 85 58 ff ff ff 	lea    rax,[rbp-0xa8]
     5de:	be 04 00 00 00       	mov    esi,0x4
     5e3:	48 89 c7             	mov    rdi,rax
     5e6:	e8 00 00 00 00       	call   5eb <testTwoSumn2+0x51>
     5eb:	48 89 85 60 ff ff ff 	mov    QWORD PTR [rbp-0xa0],rax
     5f2:	48 8b 8d 58 ff ff ff 	mov    rcx,QWORD PTR [rbp-0xa8]
     5f9:	48 8b 95 60 ff ff ff 	mov    rdx,QWORD PTR [rbp-0xa0]
     600:	48 8d 45 a0          	lea    rax,[rbp-0x60]
     604:	49 89 c8             	mov    r8,rcx
     607:	48 89 d1             	mov    rcx,rdx
     60a:	ba 05 00 00 00       	mov    edx,0x5
     60f:	be 04 00 00 00       	mov    esi,0x4
     614:	48 89 c7             	mov    rdi,rax
     617:	e8 00 00 00 00       	call   61c <testTwoSumn2+0x82>
     61c:	48 89 85 68 ff ff ff 	mov    QWORD PTR [rbp-0x98],rax
     623:	48 8d 05 00 00 00 00 	lea    rax,[rip+0x0]        # 62a <testTwoSumn2+0x90>
     62a:	48 89 45 90          	mov    QWORD PTR [rbp-0x70],rax
     62e:	48 8b 85 60 ff ff ff 	mov    rax,QWORD PTR [rbp-0xa0]
     635:	8b 00                	mov    eax,DWORD PTR [rax]
     637:	83 f8 02             	cmp    eax,0x2
     63a:	0f 94 c0             	sete   al
     63d:	88 45 98             	mov    BYTE PTR [rbp-0x68],al
     640:	48 8b 15 00 00 00 00 	mov    rdx,QWORD PTR [rip+0x0]        # 647 <testTwoSumn2+0xad>
     647:	48 8b 05 00 00 00 00 	mov    rax,QWORD PTR [rip+0x0]        # 64e <testTwoSumn2+0xb4>
     64e:	48 39 c2             	cmp    rdx,rax
     651:	75 57                	jne    6aa <testTwoSumn2+0x110>
     653:	48 8b 05 00 00 00 00 	mov    rax,QWORD PTR [rip+0x0]        # 65a <testTwoSumn2+0xc0>
     65a:	48 89 c7             	mov    rdi,rax
     65d:	e8 9e f9 ff ff       	call   0 <nextArrayAllocSize>
     662:	48 c1 e0 04          	shl    rax,0x4
     666:	48 89 c1             	mov    rcx,rax
     669:	48 8b 05 00 00 00 00 	mov    rax,QWORD PTR [rip+0x0]        # 670 <testTwoSumn2+0xd6>
     670:	48 c1 e0 04          	shl    rax,0x4
     674:	48 89 c2             	mov    rdx,rax
     677:	48 8b 35 00 00 00 00 	mov    rsi,QWORD PTR [rip+0x0]        # 67e <testTwoSumn2+0xe4>
     67e:	48 8b 05 00 00 00 00 	mov    rax,QWORD PTR [rip+0x0]        # 685 <testTwoSumn2+0xeb>
     685:	48 89 c7             	mov    rdi,rax
     688:	e8 92 f9 ff ff       	call   1f <reallocArray>
     68d:	48 89 05 00 00 00 00 	mov    QWORD PTR [rip+0x0],rax        # 694 <testTwoSumn2+0xfa>
     694:	48 8b 05 00 00 00 00 	mov    rax,QWORD PTR [rip+0x0]        # 69b <testTwoSumn2+0x101>
     69b:	48 89 c7             	mov    rdi,rax
     69e:	e8 5d f9 ff ff       	call   0 <nextArrayAllocSize>
     6a3:	48 89 05 00 00 00 00 	mov    QWORD PTR [rip+0x0],rax        # 6aa <testTwoSumn2+0x110>
     6aa:	48 8b 05 00 00 00 00 	mov    rax,QWORD PTR [rip+0x0]        # 6b1 <testTwoSumn2+0x117>
     6b1:	48 8b 15 00 00 00 00 	mov    rdx,QWORD PTR [rip+0x0]        # 6b8 <testTwoSumn2+0x11e>
     6b8:	48 c1 e2 04          	shl    rdx,0x4
     6bc:	48 8d 0c 10          	lea    rcx,[rax+rdx*1]
     6c0:	48 8b 45 90          	mov    rax,QWORD PTR [rbp-0x70]
     6c4:	48 8b 55 98          	mov    rdx,QWORD PTR [rbp-0x68]
     6c8:	48 89 01             	mov    QWORD PTR [rcx],rax
     6cb:	48 89 51 08          	mov    QWORD PTR [rcx+0x8],rdx
     6cf:	48 8b 05 00 00 00 00 	mov    rax,QWORD PTR [rip+0x0]        # 6d6 <testTwoSumn2+0x13c>
     6d6:	48 83 c0 01          	add    rax,0x1
     6da:	48 89 05 00 00 00 00 	mov    QWORD PTR [rip+0x0],rax        # 6e1 <testTwoSumn2+0x147>
     6e1:	48 8d 05 00 00 00 00 	lea    rax,[rip+0x0]        # 6e8 <testTwoSumn2+0x14e>
     6e8:	48 89 45 90          	mov    QWORD PTR [rbp-0x70],rax
     6ec:	48 8b 85 68 ff ff ff 	mov    rax,QWORD PTR [rbp-0x98]
     6f3:	8b 00                	mov    eax,DWORD PTR [rax]
     6f5:	83 f8 01             	cmp    eax,0x1
     6f8:	0f 94 c0             	sete   al
     6fb:	88 45 98             	mov    BYTE PTR [rbp-0x68],al
     6fe:	48 8b 15 00 00 00 00 	mov    rdx,QWORD PTR [rip+0x0]        # 705 <testTwoSumn2+0x16b>
     705:	48 8b 05 00 00 00 00 	mov    rax,QWORD PTR [rip+0x0]        # 70c <testTwoSumn2+0x172>
     70c:	48 39 c2             	cmp    rdx,rax
     70f:	75 57                	jne    768 <testTwoSumn2+0x1ce>
     711:	48 8b 05 00 00 00 00 	mov    rax,QWORD PTR [rip+0x0]        # 718 <testTwoSumn2+0x17e>
     718:	48 89 c7             	mov    rdi,rax
     71b:	e8 e0 f8 ff ff       	call   0 <nextArrayAllocSize>
     720:	48 c1 e0 04          	shl    rax,0x4
     724:	48 89 c1             	mov    rcx,rax
     727:	48 8b 05 00 00 00 00 	mov    rax,QWORD PTR [rip+0x0]        # 72e <testTwoSumn2+0x194>
     72e:	48 c1 e0 04          	shl    rax,0x4
     732:	48 89 c2             	mov    rdx,rax
     735:	48 8b 35 00 00 00 00 	mov    rsi,QWORD PTR [rip+0x0]        # 73c <testTwoSumn2+0x1a2>
     73c:	48 8b 05 00 00 00 00 	mov    rax,QWORD PTR [rip+0x0]        # 743 <testTwoSumn2+0x1a9>
     743:	48 89 c7             	mov    rdi,rax
     746:	e8 d4 f8 ff ff       	call   1f <reallocArray>
     74b:	48 89 05 00 00 00 00 	mov    QWORD PTR [rip+0x0],rax        # 752 <testTwoSumn2+0x1b8>
     752:	48 8b 05 00 00 00 00 	mov    rax,QWORD PTR [rip+0x0]        # 759 <testTwoSumn2+0x1bf>
     759:	48 89 c7             	mov    rdi,rax
     75c:	e8 9f f8 ff ff       	call   0 <nextArrayAllocSize>
     761:	48 89 05 00 00 00 00 	mov    QWORD PTR [rip+0x0],rax        # 768 <testTwoSumn2+0x1ce>
     768:	48 8b 05 00 00 00 00 	mov    rax,QWORD PTR [rip+0x0]        # 76f <testTwoSumn2+0x1d5>
     76f:	48 8b 15 00 00 00 00 	mov    rdx,QWORD PTR [rip+0x0]        # 776 <testTwoSumn2+0x1dc>
     776:	48 c1 e2 04          	shl    rdx,0x4
     77a:	48 8d 0c 10          	lea    rcx,[rax+rdx*1]
     77e:	48 8b 45 90          	mov    rax,QWORD PTR [rbp-0x70]
     782:	48 8b 55 98          	mov    rdx,QWORD PTR [rbp-0x68]
     786:	48 89 01             	mov    QWORD PTR [rcx],rax
     789:	48 89 51 08          	mov    QWORD PTR [rcx+0x8],rdx
     78d:	48 8b 05 00 00 00 00 	mov    rax,QWORD PTR [rip+0x0]        # 794 <testTwoSumn2+0x1fa>
     794:	48 83 c0 01          	add    rax,0x1
     798:	48 89 05 00 00 00 00 	mov    QWORD PTR [rip+0x0],rax        # 79f <testTwoSumn2+0x205>
     79f:	48 8d 05 00 00 00 00 	lea    rax,[rip+0x0]        # 7a6 <testTwoSumn2+0x20c>
     7a6:	48 89 45 90          	mov    QWORD PTR [rbp-0x70],rax
     7aa:	48 8b 85 68 ff ff ff 	mov    rax,QWORD PTR [rbp-0x98]
     7b1:	48 83 c0 04          	add    rax,0x4
     7b5:	8b 00                	mov    eax,DWORD PTR [rax]
     7b7:	83 f8 02             	cmp    eax,0x2
     7ba:	0f 94 c0             	sete   al
     7bd:	88 45 98             	mov    BYTE PTR [rbp-0x68],al
     7c0:	48 8b 15 00 00 00 00 	mov    rdx,QWORD PTR [rip+0x0]        # 7c7 <testTwoSumn2+0x22d>
     7c7:	48 8b 05 00 00 00 00 	mov    rax,QWORD PTR [rip+0x0]        # 7ce <testTwoSumn2+0x234>
     7ce:	48 39 c2             	cmp    rdx,rax
     7d1:	75 57                	jne    82a <testTwoSumn2+0x290>
     7d3:	48 8b 05 00 00 00 00 	mov    rax,QWORD PTR [rip+0x0]        # 7da <testTwoSumn2+0x240>
     7da:	48 89 c7             	mov    rdi,rax
     7dd:	e8 1e f8 ff ff       	call   0 <nextArrayAllocSize>
     7e2:	48 c1 e0 04          	shl    rax,0x4
     7e6:	48 89 c1             	mov    rcx,rax
     7e9:	48 8b 05 00 00 00 00 	mov    rax,QWORD PTR [rip+0x0]        # 7f0 <testTwoSumn2+0x256>
     7f0:	48 c1 e0 04          	shl    rax,0x4
     7f4:	48 89 c2             	mov    rdx,rax
     7f7:	48 8b 35 00 00 00 00 	mov    rsi,QWORD PTR [rip+0x0]        # 7fe <testTwoSumn2+0x264>
     7fe:	48 8b 05 00 00 00 00 	mov    rax,QWORD PTR [rip+0x0]        # 805 <testTwoSumn2+0x26b>
     805:	48 89 c7             	mov    rdi,rax
     808:	e8 12 f8 ff ff       	call   1f <reallocArray>
     80d:	48 89 05 00 00 00 00 	mov    QWORD PTR [rip+0x0],rax        # 814 <testTwoSumn2+0x27a>
     814:	48 8b 05 00 00 00 00 	mov    rax,QWORD PTR [rip+0x0]        # 81b <testTwoSumn2+0x281>
     81b:	48 89 c7             	mov    rdi,rax
     81e:	e8 dd f7 ff ff       	call   0 <nextArrayAllocSize>
     823:	48 89 05 00 00 00 00 	mov    QWORD PTR [rip+0x0],rax        # 82a <testTwoSumn2+0x290>
     82a:	48 8b 05 00 00 00 00 	mov    rax,QWORD PTR [rip+0x0]        # 831 <testTwoSumn2+0x297>
     831:	48 8b 15 00 00 00 00 	mov    rdx,QWORD PTR [rip+0x0]        # 838 <testTwoSumn2+0x29e>
     838:	48 c1 e2 04          	shl    rdx,0x4
     83c:	48 8d 0c 10          	lea    rcx,[rax+rdx*1]
     840:	48 8b 45 90          	mov    rax,QWORD PTR [rbp-0x70]
     844:	48 8b 55 98          	mov    rdx,QWORD PTR [rbp-0x68]
     848:	48 89 01             	mov    QWORD PTR [rcx],rax
     84b:	48 89 51 08          	mov    QWORD PTR [rcx+0x8],rdx
     84f:	48 8b 05 00 00 00 00 	mov    rax,QWORD PTR [rip+0x0]        # 856 <testTwoSumn2+0x2bc>
     856:	48 83 c0 01          	add    rax,0x1
     85a:	48 89 05 00 00 00 00 	mov    QWORD PTR [rip+0x0],rax        # 861 <testTwoSumn2+0x2c7>
     861:	c7 45 d0 01 00 00 00 	mov    DWORD PTR [rbp-0x30],0x1
     868:	c7 45 d4 14 00 00 00 	mov    DWORD PTR [rbp-0x2c],0x14
     86f:	c7 45 d8 03 00 00 00 	mov    DWORD PTR [rbp-0x28],0x3
     876:	c7 45 dc 05 00 00 00 	mov    DWORD PTR [rbp-0x24],0x5
     87d:	c7 45 e0 0b 00 00 00 	mov    DWORD PTR [rbp-0x20],0xb
     884:	c7 45 e4 0e 00 00 00 	mov    DWORD PTR [rbp-0x1c],0xe
     88b:	c7 45 e8 0b 00 00 00 	mov    DWORD PTR [rbp-0x18],0xb
     892:	48 8d 85 58 ff ff ff 	lea    rax,[rbp-0xa8]
     899:	be 04 00 00 00       	mov    esi,0x4
     89e:	48 89 c7             	mov    rdi,rax
     8a1:	e8 00 00 00 00       	call   8a6 <testTwoSumn2+0x30c>
     8a6:	48 89 85 70 ff ff ff 	mov    QWORD PTR [rbp-0x90],rax
     8ad:	48 8b 8d 58 ff ff ff 	mov    rcx,QWORD PTR [rbp-0xa8]
     8b4:	48 8b 95 70 ff ff ff 	mov    rdx,QWORD PTR [rbp-0x90]
     8bb:	48 8d 45 d0          	lea    rax,[rbp-0x30]
     8bf:	49 89 c8             	mov    r8,rcx
     8c2:	48 89 d1             	mov    rcx,rdx
     8c5:	ba 0a 00 00 00       	mov    edx,0xa
     8ca:	be 07 00 00 00       	mov    esi,0x7
     8cf:	48 89 c7             	mov    rdi,rax
     8d2:	e8 00 00 00 00       	call   8d7 <testTwoSumn2+0x33d>
     8d7:	48 89 85 78 ff ff ff 	mov    QWORD PTR [rbp-0x88],rax
     8de:	48 8d 05 00 00 00 00 	lea    rax,[rip+0x0]        # 8e5 <testTwoSumn2+0x34b>
     8e5:	48 89 45 90          	mov    QWORD PTR [rbp-0x70],rax
     8e9:	48 8b 85 70 ff ff ff 	mov    rax,QWORD PTR [rbp-0x90]
     8f0:	8b 00                	mov    eax,DWORD PTR [rax]
     8f2:	85 c0                	test   eax,eax
     8f4:	0f 94 c0             	sete   al
     8f7:	88 45 98             	mov    BYTE PTR [rbp-0x68],al
     8fa:	48 8b 15 00 00 00 00 	mov    rdx,QWORD PTR [rip+0x0]        # 901 <testTwoSumn2+0x367>
     901:	48 8b 05 00 00 00 00 	mov    rax,QWORD PTR [rip+0x0]        # 908 <testTwoSumn2+0x36e>
     908:	48 39 c2             	cmp    rdx,rax
     90b:	75 57                	jne    964 <testTwoSumn2+0x3ca>
     90d:	48 8b 05 00 00 00 00 	mov    rax,QWORD PTR [rip+0x0]        # 914 <testTwoSumn2+0x37a>
     914:	48 89 c7             	mov    rdi,rax
     917:	e8 e4 f6 ff ff       	call   0 <nextArrayAllocSize>
     91c:	48 c1 e0 04          	shl    rax,0x4
     920:	48 89 c1             	mov    rcx,rax
     923:	48 8b 05 00 00 00 00 	mov    rax,QWORD PTR [rip+0x0]        # 92a <testTwoSumn2+0x390>
     92a:	48 c1 e0 04          	shl    rax,0x4
     92e:	48 89 c2             	mov    rdx,rax
     931:	48 8b 35 00 00 00 00 	mov    rsi,QWORD PTR [rip+0x0]        # 938 <testTwoSumn2+0x39e>
     938:	48 8b 05 00 00 00 00 	mov    rax,QWORD PTR [rip+0x0]        # 93f <testTwoSumn2+0x3a5>
     93f:	48 89 c7             	mov    rdi,rax
     942:	e8 d8 f6 ff ff       	call   1f <reallocArray>
     947:	48 89 05 00 00 00 00 	mov    QWORD PTR [rip+0x0],rax        # 94e <testTwoSumn2+0x3b4>
     94e:	48 8b 05 00 00 00 00 	mov    rax,QWORD PTR [rip+0x0]        # 955 <testTwoSumn2+0x3bb>
     955:	48 89 c7             	mov    rdi,rax
     958:	e8 a3 f6 ff ff       	call   0 <nextArrayAllocSize>
     95d:	48 89 05 00 00 00 00 	mov    QWORD PTR [rip+0x0],rax        # 964 <testTwoSumn2+0x3ca>
     964:	48 8b 05 00 00 00 00 	mov    rax,QWORD PTR [rip+0x0]        # 96b <testTwoSumn2+0x3d1>
     96b:	48 8b 15 00 00 00 00 	mov    rdx,QWORD PTR [rip+0x0]        # 972 <testTwoSumn2+0x3d8>
     972:	48 c1 e2 04          	shl    rdx,0x4
     976:	48 8d 0c 10          	lea    rcx,[rax+rdx*1]
     97a:	48 8b 45 90          	mov    rax,QWORD PTR [rbp-0x70]
     97e:	48 8b 55 98          	mov    rdx,QWORD PTR [rbp-0x68]
     982:	48 89 01             	mov    QWORD PTR [rcx],rax
     985:	48 89 51 08          	mov    QWORD PTR [rcx+0x8],rdx
     989:	48 8b 05 00 00 00 00 	mov    rax,QWORD PTR [rip+0x0]        # 990 <testTwoSumn2+0x3f6>
     990:	48 83 c0 01          	add    rax,0x1
     994:	48 89 05 00 00 00 00 	mov    QWORD PTR [rip+0x0],rax        # 99b <testTwoSumn2+0x401>
     99b:	48 8d 05 00 00 00 00 	lea    rax,[rip+0x0]        # 9a2 <testTwoSumn2+0x408>
     9a2:	48 89 45 90          	mov    QWORD PTR [rbp-0x70],rax
     9a6:	48 83 bd 78 ff ff ff 	cmp    QWORD PTR [rbp-0x88],0x0
     9ad:	00 
     9ae:	0f 94 c0             	sete   al
     9b1:	88 45 98             	mov    BYTE PTR [rbp-0x68],al
     9b4:	48 8b 15 00 00 00 00 	mov    rdx,QWORD PTR [rip+0x0]        # 9bb <testTwoSumn2+0x421>
     9bb:	48 8b 05 00 00 00 00 	mov    rax,QWORD PTR [rip+0x0]        # 9c2 <testTwoSumn2+0x428>
     9c2:	48 39 c2             	cmp    rdx,rax
     9c5:	75 57                	jne    a1e <testTwoSumn2+0x484>
     9c7:	48 8b 05 00 00 00 00 	mov    rax,QWORD PTR [rip+0x0]        # 9ce <testTwoSumn2+0x434>
     9ce:	48 89 c7             	mov    rdi,rax
     9d1:	e8 2a f6 ff ff       	call   0 <nextArrayAllocSize>
     9d6:	48 c1 e0 04          	shl    rax,0x4
     9da:	48 89 c1             	mov    rcx,rax
     9dd:	48 8b 05 00 00 00 00 	mov    rax,QWORD PTR [rip+0x0]        # 9e4 <testTwoSumn2+0x44a>
     9e4:	48 c1 e0 04          	shl    rax,0x4
     9e8:	48 89 c2             	mov    rdx,rax
     9eb:	48 8b 35 00 00 00 00 	mov    rsi,QWORD PTR [rip+0x0]        # 9f2 <testTwoSumn2+0x458>
     9f2:	48 8b 05 00 00 00 00 	mov    rax,QWORD PTR [rip+0x0]        # 9f9 <testTwoSumn2+0x45f>
     9f9:	48 89 c7             	mov    rdi,rax
     9fc:	e8 1e f6 ff ff       	call   1f <reallocArray>
     a01:	48 89 05 00 00 00 00 	mov    QWORD PTR [rip+0x0],rax        # a08 <testTwoSumn2+0x46e>
     a08:	48 8b 05 00 00 00 00 	mov    rax,QWORD PTR [rip+0x0]        # a0f <testTwoSumn2+0x475>
     a0f:	48 89 c7             	mov    rdi,rax
     a12:	e8 e9 f5 ff ff       	call   0 <nextArrayAllocSize>
     a17:	48 89 05 00 00 00 00 	mov    QWORD PTR [rip+0x0],rax        # a1e <testTwoSumn2+0x484>
     a1e:	48 8b 05 00 00 00 00 	mov    rax,QWORD PTR [rip+0x0]        # a25 <testTwoSumn2+0x48b>
     a25:	48 8b 15 00 00 00 00 	mov    rdx,QWORD PTR [rip+0x0]        # a2c <testTwoSumn2+0x492>
     a2c:	48 c1 e2 04          	shl    rdx,0x4
     a30:	48 8d 0c 10          	lea    rcx,[rax+rdx*1]
     a34:	48 8b 45 90          	mov    rax,QWORD PTR [rbp-0x70]
     a38:	48 8b 55 98          	mov    rdx,QWORD PTR [rbp-0x68]
     a3c:	48 89 01             	mov    QWORD PTR [rcx],rax
     a3f:	48 89 51 08          	mov    QWORD PTR [rcx+0x8],rdx
     a43:	48 8b 05 00 00 00 00 	mov    rax,QWORD PTR [rip+0x0]        # a4a <testTwoSumn2+0x4b0>
     a4a:	48 83 c0 01          	add    rax,0x1
     a4e:	48 89 05 00 00 00 00 	mov    QWORD PTR [rip+0x0],rax        # a55 <testTwoSumn2+0x4bb>
     a55:	c7 45 b0 64 00 00 00 	mov    DWORD PTR [rbp-0x50],0x64
     a5c:	c7 45 b4 32 02 00 00 	mov    DWORD PTR [rbp-0x4c],0x232
     a63:	c7 45 b8 b1 02 00 00 	mov    DWORD PTR [rbp-0x48],0x2b1
     a6a:	c7 45 bc 8e 02 00 00 	mov    DWORD PTR [rbp-0x44],0x28e
     a71:	c7 45 c0 e8 03 00 00 	mov    DWORD PTR [rbp-0x40],0x3e8
     a78:	c7 45 c4 38 00 00 00 	mov    DWORD PTR [rbp-0x3c],0x38
     a7f:	48 8d 85 58 ff ff ff 	lea    rax,[rbp-0xa8]
     a86:	be 04 00 00 00       	mov    esi,0x4
     a8b:	48 89 c7             	mov    rdi,rax
     a8e:	e8 00 00 00 00       	call   a93 <testTwoSumn2+0x4f9>
     a93:	48 89 45 80          	mov    QWORD PTR [rbp-0x80],rax
     a97:	48 8b 8d 58 ff ff ff 	mov    rcx,QWORD PTR [rbp-0xa8]
     a9e:	48 8b 55 80          	mov    rdx,QWORD PTR [rbp-0x80]
     aa2:	48 8d 45 b0          	lea    rax,[rbp-0x50]
     aa6:	49 89 c8             	mov    r8,rcx
     aa9:	48 89 d1             	mov    rcx,rdx
     aac:	ba 76 06 00 00       	mov    edx,0x676
     ab1:	be 06 00 00 00       	mov    esi,0x6
     ab6:	48 89 c7             	mov    rdi,rax
     ab9:	e8 00 00 00 00       	call   abe <testTwoSumn2+0x524>
     abe:	48 89 45 88          	mov    QWORD PTR [rbp-0x78],rax
     ac2:	48 8d 05 00 00 00 00 	lea    rax,[rip+0x0]        # ac9 <testTwoSumn2+0x52f>
     ac9:	48 89 45 90          	mov    QWORD PTR [rbp-0x70],rax
     acd:	48 8b 45 80          	mov    rax,QWORD PTR [rbp-0x80]
     ad1:	8b 00                	mov    eax,DWORD PTR [rax]
     ad3:	83 f8 02             	cmp    eax,0x2
     ad6:	0f 94 c0             	sete   al
     ad9:	88 45 98             	mov    BYTE PTR [rbp-0x68],al
     adc:	48 8b 15 00 00 00 00 	mov    rdx,QWORD PTR [rip+0x0]        # ae3 <testTwoSumn2+0x549>
     ae3:	48 8b 05 00 00 00 00 	mov    rax,QWORD PTR [rip+0x0]        # aea <testTwoSumn2+0x550>
     aea:	48 39 c2             	cmp    rdx,rax
     aed:	75 57                	jne    b46 <testTwoSumn2+0x5ac>
     aef:	48 8b 05 00 00 00 00 	mov    rax,QWORD PTR [rip+0x0]        # af6 <testTwoSumn2+0x55c>
     af6:	48 89 c7             	mov    rdi,rax
     af9:	e8 02 f5 ff ff       	call   0 <nextArrayAllocSize>
     afe:	48 c1 e0 04          	shl    rax,0x4
     b02:	48 89 c1             	mov    rcx,rax
     b05:	48 8b 05 00 00 00 00 	mov    rax,QWORD PTR [rip+0x0]        # b0c <testTwoSumn2+0x572>
     b0c:	48 c1 e0 04          	shl    rax,0x4
     b10:	48 89 c2             	mov    rdx,rax
     b13:	48 8b 35 00 00 00 00 	mov    rsi,QWORD PTR [rip+0x0]        # b1a <testTwoSumn2+0x580>
     b1a:	48 8b 05 00 00 00 00 	mov    rax,QWORD PTR [rip+0x0]        # b21 <testTwoSumn2+0x587>
     b21:	48 89 c7             	mov    rdi,rax
     b24:	e8 f6 f4 ff ff       	call   1f <reallocArray>
     b29:	48 89 05 00 00 00 00 	mov    QWORD PTR [rip+0x0],rax        # b30 <testTwoSumn2+0x596>
     b30:	48 8b 05 00 00 00 00 	mov    rax,QWORD PTR [rip+0x0]        # b37 <testTwoSumn2+0x59d>
     b37:	48 89 c7             	mov    rdi,rax
     b3a:	e8 c1 f4 ff ff       	call   0 <nextArrayAllocSize>
     b3f:	48 89 05 00 00 00 00 	mov    QWORD PTR [rip+0x0],rax        # b46 <testTwoSumn2+0x5ac>
     b46:	48 8b 05 00 00 00 00 	mov    rax,QWORD PTR [rip+0x0]        # b4d <testTwoSumn2+0x5b3>
     b4d:	48 8b 15 00 00 00 00 	mov    rdx,QWORD PTR [rip+0x0]        # b54 <testTwoSumn2+0x5ba>
     b54:	48 c1 e2 04          	shl    rdx,0x4
     b58:	48 8d 0c 10          	lea    rcx,[rax+rdx*1]
     b5c:	48 8b 45 90          	mov    rax,QWORD PTR [rbp-0x70]
     b60:	48 8b 55 98          	mov    rdx,QWORD PTR [rbp-0x68]
     b64:	48 89 01             	mov    QWORD PTR [rcx],rax
     b67:	48 89 51 08          	mov    QWORD PTR [rcx+0x8],rdx
     b6b:	48 8b 05 00 00 00 00 	mov    rax,QWORD PTR [rip+0x0]        # b72 <testTwoSumn2+0x5d8>
     b72:	48 83 c0 01          	add    rax,0x1
     b76:	48 89 05 00 00 00 00 	mov    QWORD PTR [rip+0x0],rax        # b7d <testTwoSumn2+0x5e3>
     b7d:	48 8d 05 00 00 00 00 	lea    rax,[rip+0x0]        # b84 <testTwoSumn2+0x5ea>
     b84:	48 89 45 90          	mov    QWORD PTR [rbp-0x70],rax
     b88:	48 8b 45 88          	mov    rax,QWORD PTR [rbp-0x78]
     b8c:	8b 00                	mov    eax,DWORD PTR [rax]
     b8e:	83 f8 03             	cmp    eax,0x3
     b91:	0f 94 c0             	sete   al
     b94:	88 45 98             	mov    BYTE PTR [rbp-0x68],al
     b97:	48 8b 15 00 00 00 00 	mov    rdx,QWORD PTR [rip+0x0]        # b9e <testTwoSumn2+0x604>
     b9e:	48 8b 05 00 00 00 00 	mov    rax,QWORD PTR [rip+0x0]        # ba5 <testTwoSumn2+0x60b>
     ba5:	48 39 c2             	cmp    rdx,rax
     ba8:	75 57                	jne    c01 <testTwoSumn2+0x667>
     baa:	48 8b 05 00 00 00 00 	mov    rax,QWORD PTR [rip+0x0]        # bb1 <testTwoSumn2+0x617>
     bb1:	48 89 c7             	mov    rdi,rax
     bb4:	e8 47 f4 ff ff       	call   0 <nextArrayAllocSize>
     bb9:	48 c1 e0 04          	shl    rax,0x4
     bbd:	48 89 c1             	mov    rcx,rax
     bc0:	48 8b 05 00 00 00 00 	mov    rax,QWORD PTR [rip+0x0]        # bc7 <testTwoSumn2+0x62d>
     bc7:	48 c1 e0 04          	shl    rax,0x4
     bcb:	48 89 c2             	mov    rdx,rax
     bce:	48 8b 35 00 00 00 00 	mov    rsi,QWORD PTR [rip+0x0]        # bd5 <testTwoSumn2+0x63b>
     bd5:	48 8b 05 00 00 00 00 	mov    rax,QWORD PTR [rip+0x0]        # bdc <testTwoSumn2+0x642>
     bdc:	48 89 c7             	mov    rdi,rax
     bdf:	e8 3b f4 ff ff       	call   1f <reallocArray>
     be4:	48 89 05 00 00 00 00 	mov    QWORD PTR [rip+0x0],rax        # beb <testTwoSumn2+0x651>
     beb:	48 8b 05 00 00 00 00 	mov    rax,QWORD PTR [rip+0x0]        # bf2 <testTwoSumn2+0x658>
     bf2:	48 89 c7             	mov    rdi,rax
     bf5:	e8 06 f4 ff ff       	call   0 <nextArrayAllocSize>
     bfa:	48 89 05 00 00 00 00 	mov    QWORD PTR [rip+0x0],rax        # c01 <testTwoSumn2+0x667>
     c01:	48 8b 05 00 00 00 00 	mov    rax,QWORD PTR [rip+0x0]        # c08 <testTwoSumn2+0x66e>
     c08:	48 8b 15 00 00 00 00 	mov    rdx,QWORD PTR [rip+0x0]        # c0f <testTwoSumn2+0x675>
     c0f:	48 c1 e2 04          	shl    rdx,0x4
     c13:	48 8d 0c 10          	lea    rcx,[rax+rdx*1]
     c17:	48 8b 45 90          	mov    rax,QWORD PTR [rbp-0x70]
     c1b:	48 8b 55 98          	mov    rdx,QWORD PTR [rbp-0x68]
     c1f:	48 89 01             	mov    QWORD PTR [rcx],rax
     c22:	48 89 51 08          	mov    QWORD PTR [rcx+0x8],rdx
     c26:	48 8b 05 00 00 00 00 	mov    rax,QWORD PTR [rip+0x0]        # c2d <testTwoSumn2+0x693>
     c2d:	48 83 c0 01          	add    rax,0x1
     c31:	48 89 05 00 00 00 00 	mov    QWORD PTR [rip+0x0],rax        # c38 <testTwoSumn2+0x69e>
     c38:	48 8d 05 00 00 00 00 	lea    rax,[rip+0x0]        # c3f <testTwoSumn2+0x6a5>
     c3f:	48 89 45 90          	mov    QWORD PTR [rbp-0x70],rax
     c43:	48 8b 45 88          	mov    rax,QWORD PTR [rbp-0x78]
     c47:	48 83 c0 04          	add    rax,0x4
     c4b:	8b 00                	mov    eax,DWORD PTR [rax]
     c4d:	83 f8 04             	cmp    eax,0x4
     c50:	0f 94 c0             	sete   al
     c53:	88 45 98             	mov    BYTE PTR [rbp-0x68],al
     c56:	48 8b 15 00 00 00 00 	mov    rdx,QWORD PTR [rip+0x0]        # c5d <testTwoSumn2+0x6c3>
     c5d:	48 8b 05 00 00 00 00 	mov    rax,QWORD PTR [rip+0x0]        # c64 <testTwoSumn2+0x6ca>
     c64:	48 39 c2             	cmp    rdx,rax
     c67:	75 57                	jne    cc0 <testTwoSumn2+0x726>
     c69:	48 8b 05 00 00 00 00 	mov    rax,QWORD PTR [rip+0x0]        # c70 <testTwoSumn2+0x6d6>
     c70:	48 89 c7             	mov    rdi,rax
     c73:	e8 88 f3 ff ff       	call   0 <nextArrayAllocSize>
     c78:	48 c1 e0 04          	shl    rax,0x4
     c7c:	48 89 c1             	mov    rcx,rax
     c7f:	48 8b 05 00 00 00 00 	mov    rax,QWORD PTR [rip+0x0]        # c86 <testTwoSumn2+0x6ec>
     c86:	48 c1 e0 04          	shl    rax,0x4
     c8a:	48 89 c2             	mov    rdx,rax
     c8d:	48 8b 35 00 00 00 00 	mov    rsi,QWORD PTR [rip+0x0]        # c94 <testTwoSumn2+0x6fa>
     c94:	48 8b 05 00 00 00 00 	mov    rax,QWORD PTR [rip+0x0]        # c9b <testTwoSumn2+0x701>
     c9b:	48 89 c7             	mov    rdi,rax
     c9e:	e8 7c f3 ff ff       	call   1f <reallocArray>
     ca3:	48 89 05 00 00 00 00 	mov    QWORD PTR [rip+0x0],rax        # caa <testTwoSumn2+0x710>
     caa:	48 8b 05 00 00 00 00 	mov    rax,QWORD PTR [rip+0x0]        # cb1 <testTwoSumn2+0x717>
     cb1:	48 89 c7             	mov    rdi,rax
     cb4:	e8 47 f3 ff ff       	call   0 <nextArrayAllocSize>
     cb9:	48 89 05 00 00 00 00 	mov    QWORD PTR [rip+0x0],rax        # cc0 <testTwoSumn2+0x726>
     cc0:	48 8b 05 00 00 00 00 	mov    rax,QWORD PTR [rip+0x0]        # cc7 <testTwoSumn2+0x72d>
     cc7:	48 8b 15 00 00 00 00 	mov    rdx,QWORD PTR [rip+0x0]        # cce <testTwoSumn2+0x734>
     cce:	48 c1 e2 04          	shl    rdx,0x4
     cd2:	48 8d 0c 10          	lea    rcx,[rax+rdx*1]
     cd6:	48 8b 45 90          	mov    rax,QWORD PTR [rbp-0x70]
     cda:	48 8b 55 98          	mov    rdx,QWORD PTR [rbp-0x68]
     cde:	48 89 01             	mov    QWORD PTR [rcx],rax
     ce1:	48 89 51 08          	mov    QWORD PTR [rcx+0x8],rdx
     ce5:	48 8b 05 00 00 00 00 	mov    rax,QWORD PTR [rip+0x0]        # cec <testTwoSumn2+0x752>
     cec:	48 83 c0 01          	add    rax,0x1
     cf0:	48 89 05 00 00 00 00 	mov    QWORD PTR [rip+0x0],rax        # cf7 <testTwoSumn2+0x75d>
     cf7:	90                   	nop
     cf8:	48 8b 45 f8          	mov    rax,QWORD PTR [rbp-0x8]
     cfc:	64 48 2b 04 25 28 00 	sub    rax,QWORD PTR fs:0x28
     d03:	00 00 
     d05:	74 05                	je     d0c <testTwoSumn2+0x772>
     d07:	e8 00 00 00 00       	call   d0c <testTwoSumn2+0x772>
     d0c:	c9                   	leave
     d0d:	c3                   	ret

0000000000000d0e <testTwoSumC>:
     d0e:	55                   	push   rbp
     d0f:	48 89 e5             	mov    rbp,rsp
     d12:	48 81 ec b0 00 00 00 	sub    rsp,0xb0
     d19:	48 89 bd 58 ff ff ff 	mov    QWORD PTR [rbp-0xa8],rdi
     d20:	64 48 8b 04 25 28 00 	mov    rax,QWORD PTR fs:0x28
     d27:	00 00 
     d29:	48 89 45 f8          	mov    QWORD PTR [rbp-0x8],rax
     d2d:	31 c0                	xor    eax,eax
     d2f:	c7 45 a0 01 00 00 00 	mov    DWORD PTR [rbp-0x60],0x1
     d36:	c7 45 a4 02 00 00 00 	mov    DWORD PTR [rbp-0x5c],0x2
     d3d:	c7 45 a8 03 00 00 00 	mov    DWORD PTR [rbp-0x58],0x3
     d44:	c7 45 ac 05 00 00 00 	mov    DWORD PTR [rbp-0x54],0x5
     d4b:	48 8d 85 58 ff ff ff 	lea    rax,[rbp-0xa8]
     d52:	be 04 00 00 00       	mov    esi,0x4
     d57:	48 89 c7             	mov    rdi,rax
     d5a:	e8 00 00 00 00       	call   d5f <testTwoSumC+0x51>
     d5f:	48 89 85 60 ff ff ff 	mov    QWORD PTR [rbp-0xa0],rax
     d66:	48 8b 8d 58 ff ff ff 	mov    rcx,QWORD PTR [rbp-0xa8]
     d6d:	48 8b 95 60 ff ff ff 	mov    rdx,QWORD PTR [rbp-0xa0]
     d74:	48 8d 45 a0          	lea    rax,[rbp-0x60]
     d78:	49 89 c8             	mov    r8,rcx
     d7b:	48 89 d1             	mov    rcx,rdx
     d7e:	ba 05 00 00 00       	mov    edx,0x5
     d83:	be 04 00 00 00       	mov    esi,0x4
     d88:	48 89 c7             	mov    rdi,rax
     d8b:	e8 00 00 00 00       	call   d90 <testTwoSumC+0x82>
     d90:	48 89 85 68 ff ff ff 	mov    QWORD PTR [rbp-0x98],rax
     d97:	48 8d 05 00 00 00 00 	lea    rax,[rip+0x0]        # d9e <testTwoSumC+0x90>
     d9e:	48 89 45 90          	mov    QWORD PTR [rbp-0x70],rax
     da2:	48 8b 85 60 ff ff ff 	mov    rax,QWORD PTR [rbp-0xa0]
     da9:	8b 00                	mov    eax,DWORD PTR [rax]
     dab:	83 f8 02             	cmp    eax,0x2
     dae:	0f 94 c0             	sete   al
     db1:	88 45 98             	mov    BYTE PTR [rbp-0x68],al
     db4:	48 8b 15 00 00 00 00 	mov    rdx,QWORD PTR [rip+0x0]        # dbb <testTwoSumC+0xad>
     dbb:	48 8b 05 00 00 00 00 	mov    rax,QWORD PTR [rip+0x0]        # dc2 <testTwoSumC+0xb4>
     dc2:	48 39 c2             	cmp    rdx,rax
     dc5:	75 57                	jne    e1e <testTwoSumC+0x110>
     dc7:	48 8b 05 00 00 00 00 	mov    rax,QWORD PTR [rip+0x0]        # dce <testTwoSumC+0xc0>
     dce:	48 89 c7             	mov    rdi,rax
     dd1:	e8 2a f2 ff ff       	call   0 <nextArrayAllocSize>
     dd6:	48 c1 e0 04          	shl    rax,0x4
     dda:	48 89 c1             	mov    rcx,rax
     ddd:	48 8b 05 00 00 00 00 	mov    rax,QWORD PTR [rip+0x0]        # de4 <testTwoSumC+0xd6>
     de4:	48 c1 e0 04          	shl    rax,0x4
     de8:	48 89 c2             	mov    rdx,rax
     deb:	48 8b 35 00 00 00 00 	mov    rsi,QWORD PTR [rip+0x0]        # df2 <testTwoSumC+0xe4>
     df2:	48 8b 05 00 00 00 00 	mov    rax,QWORD PTR [rip+0x0]        # df9 <testTwoSumC+0xeb>
     df9:	48 89 c7             	mov    rdi,rax
     dfc:	e8 1e f2 ff ff       	call   1f <reallocArray>
     e01:	48 89 05 00 00 00 00 	mov    QWORD PTR [rip+0x0],rax        # e08 <testTwoSumC+0xfa>
     e08:	48 8b 05 00 00 00 00 	mov    rax,QWORD PTR [rip+0x0]        # e0f <testTwoSumC+0x101>
     e0f:	48 89 c7             	mov    rdi,rax
     e12:	e8 e9 f1 ff ff       	call   0 <nextArrayAllocSize>
     e17:	48 89 05 00 00 00 00 	mov    QWORD PTR [rip+0x0],rax        # e1e <testTwoSumC+0x110>
     e1e:	48 8b 05 00 00 00 00 	mov    rax,QWORD PTR [rip+0x0]        # e25 <testTwoSumC+0x117>
     e25:	48 8b 15 00 00 00 00 	mov    rdx,QWORD PTR [rip+0x0]        # e2c <testTwoSumC+0x11e>
     e2c:	48 c1 e2 04          	shl    rdx,0x4
     e30:	48 8d 0c 10          	lea    rcx,[rax+rdx*1]
     e34:	48 8b 45 90          	mov    rax,QWORD PTR [rbp-0x70]
     e38:	48 8b 55 98          	mov    rdx,QWORD PTR [rbp-0x68]
     e3c:	48 89 01             	mov    QWORD PTR [rcx],rax
     e3f:	48 89 51 08          	mov    QWORD PTR [rcx+0x8],rdx
     e43:	48 8b 05 00 00 00 00 	mov    rax,QWORD PTR [rip+0x0]        # e4a <testTwoSumC+0x13c>
     e4a:	48 83 c0 01          	add    rax,0x1
     e4e:	48 89 05 00 00 00 00 	mov    QWORD PTR [rip+0x0],rax        # e55 <testTwoSumC+0x147>
     e55:	48 8d 05 00 00 00 00 	lea    rax,[rip+0x0]        # e5c <testTwoSumC+0x14e>
     e5c:	48 89 45 90          	mov    QWORD PTR [rbp-0x70],rax
     e60:	48 8b 85 68 ff ff ff 	mov    rax,QWORD PTR [rbp-0x98]
     e67:	8b 00                	mov    eax,DWORD PTR [rax]
     e69:	83 f8 01             	cmp    eax,0x1
     e6c:	0f 94 c0             	sete   al
     e6f:	88 45 98             	mov    BYTE PTR [rbp-0x68],al
     e72:	48 8b 15 00 00 00 00 	mov    rdx,QWORD PTR [rip+0x0]        # e79 <testTwoSumC+0x16b>
     e79:	48 8b 05 00 00 00 00 	mov    rax,QWORD PTR [rip+0x0]        # e80 <testTwoSumC+0x172>
     e80:	48 39 c2             	cmp    rdx,rax
     e83:	75 57                	jne    edc <testTwoSumC+0x1ce>
     e85:	48 8b 05 00 00 00 00 	mov    rax,QWORD PTR [rip+0x0]        # e8c <testTwoSumC+0x17e>
     e8c:	48 89 c7             	mov    rdi,rax
     e8f:	e8 6c f1 ff ff       	call   0 <nextArrayAllocSize>
     e94:	48 c1 e0 04          	shl    rax,0x4
     e98:	48 89 c1             	mov    rcx,rax
     e9b:	48 8b 05 00 00 00 00 	mov    rax,QWORD PTR [rip+0x0]        # ea2 <testTwoSumC+0x194>
     ea2:	48 c1 e0 04          	shl    rax,0x4
     ea6:	48 89 c2             	mov    rdx,rax
     ea9:	48 8b 35 00 00 00 00 	mov    rsi,QWORD PTR [rip+0x0]        # eb0 <testTwoSumC+0x1a2>
     eb0:	48 8b 05 00 00 00 00 	mov    rax,QWORD PTR [rip+0x0]        # eb7 <testTwoSumC+0x1a9>
     eb7:	48 89 c7             	mov    rdi,rax
     eba:	e8 60 f1 ff ff       	call   1f <reallocArray>
     ebf:	48 89 05 00 00 00 00 	mov    QWORD PTR [rip+0x0],rax        # ec6 <testTwoSumC+0x1b8>
     ec6:	48 8b 05 00 00 00 00 	mov    rax,QWORD PTR [rip+0x0]        # ecd <testTwoSumC+0x1bf>
     ecd:	48 89 c7             	mov    rdi,rax
     ed0:	e8 2b f1 ff ff       	call   0 <nextArrayAllocSize>
     ed5:	48 89 05 00 00 00 00 	mov    QWORD PTR [rip+0x0],rax        # edc <testTwoSumC+0x1ce>
     edc:	48 8b 05 00 00 00 00 	mov    rax,QWORD PTR [rip+0x0]        # ee3 <testTwoSumC+0x1d5>
     ee3:	48 8b 15 00 00 00 00 	mov    rdx,QWORD PTR [rip+0x0]        # eea <testTwoSumC+0x1dc>
     eea:	48 c1 e2 04          	shl    rdx,0x4
     eee:	48 8d 0c 10          	lea    rcx,[rax+rdx*1]
     ef2:	48 8b 45 90          	mov    rax,QWORD PTR [rbp-0x70]
     ef6:	48 8b 55 98          	mov    rdx,QWORD PTR [rbp-0x68]
     efa:	48 89 01             	mov    QWORD PTR [rcx],rax
     efd:	48 89 51 08          	mov    QWORD PTR [rcx+0x8],rdx
     f01:	48 8b 05 00 00 00 00 	mov    rax,QWORD PTR [rip+0x0]        # f08 <testTwoSumC+0x1fa>
     f08:	48 83 c0 01          	add    rax,0x1
     f0c:	48 89 05 00 00 00 00 	mov    QWORD PTR [rip+0x0],rax        # f13 <testTwoSumC+0x205>
     f13:	48 8d 05 00 00 00 00 	lea    rax,[rip+0x0]        # f1a <testTwoSumC+0x20c>
     f1a:	48 89 45 90          	mov    QWORD PTR [rbp-0x70],rax
     f1e:	48 8b 85 68 ff ff ff 	mov    rax,QWORD PTR [rbp-0x98]
     f25:	48 83 c0 04          	add    rax,0x4
     f29:	8b 00                	mov    eax,DWORD PTR [rax]
     f2b:	83 f8 02             	cmp    eax,0x2
     f2e:	0f 94 c0             	sete   al
     f31:	88 45 98             	mov    BYTE PTR [rbp-0x68],al
     f34:	48 8b 15 00 00 00 00 	mov    rdx,QWORD PTR [rip+0x0]        # f3b <testTwoSumC+0x22d>
     f3b:	48 8b 05 00 00 00 00 	mov    rax,QWORD PTR [rip+0x0]        # f42 <testTwoSumC+0x234>
     f42:	48 39 c2             	cmp    rdx,rax
     f45:	75 57                	jne    f9e <testTwoSumC+0x290>
     f47:	48 8b 05 00 00 00 00 	mov    rax,QWORD PTR [rip+0x0]        # f4e <testTwoSumC+0x240>
     f4e:	48 89 c7             	mov    rdi,rax
     f51:	e8 aa f0 ff ff       	call   0 <nextArrayAllocSize>
     f56:	48 c1 e0 04          	shl    rax,0x4
     f5a:	48 89 c1             	mov    rcx,rax
     f5d:	48 8b 05 00 00 00 00 	mov    rax,QWORD PTR [rip+0x0]        # f64 <testTwoSumC+0x256>
     f64:	48 c1 e0 04          	shl    rax,0x4
     f68:	48 89 c2             	mov    rdx,rax
     f6b:	48 8b 35 00 00 00 00 	mov    rsi,QWORD PTR [rip+0x0]        # f72 <testTwoSumC+0x264>
     f72:	48 8b 05 00 00 00 00 	mov    rax,QWORD PTR [rip+0x0]        # f79 <testTwoSumC+0x26b>
     f79:	48 89 c7             	mov    rdi,rax
     f7c:	e8 9e f0 ff ff       	call   1f <reallocArray>
     f81:	48 89 05 00 00 00 00 	mov    QWORD PTR [rip+0x0],rax        # f88 <testTwoSumC+0x27a>
     f88:	48 8b 05 00 00 00 00 	mov    rax,QWORD PTR [rip+0x0]        # f8f <testTwoSumC+0x281>
     f8f:	48 89 c7             	mov    rdi,rax
     f92:	e8 69 f0 ff ff       	call   0 <nextArrayAllocSize>
     f97:	48 89 05 00 00 00 00 	mov    QWORD PTR [rip+0x0],rax        # f9e <testTwoSumC+0x290>
     f9e:	48 8b 05 00 00 00 00 	mov    rax,QWORD PTR [rip+0x0]        # fa5 <testTwoSumC+0x297>
     fa5:	48 8b 15 00 00 00 00 	mov    rdx,QWORD PTR [rip+0x0]        # fac <testTwoSumC+0x29e>
     fac:	48 c1 e2 04          	shl    rdx,0x4
     fb0:	48 8d 0c 10          	lea    rcx,[rax+rdx*1]
     fb4:	48 8b 45 90          	mov    rax,QWORD PTR [rbp-0x70]
     fb8:	48 8b 55 98          	mov    rdx,QWORD PTR [rbp-0x68]
     fbc:	48 89 01             	mov    QWORD PTR [rcx],rax
     fbf:	48 89 51 08          	mov    QWORD PTR [rcx+0x8],rdx
     fc3:	48 8b 05 00 00 00 00 	mov    rax,QWORD PTR [rip+0x0]        # fca <testTwoSumC+0x2bc>
     fca:	48 83 c0 01          	add    rax,0x1
     fce:	48 89 05 00 00 00 00 	mov    QWORD PTR [rip+0x0],rax        # fd5 <testTwoSumC+0x2c7>
     fd5:	c7 45 d0 01 00 00 00 	mov    DWORD PTR [rbp-0x30],0x1
     fdc:	c7 45 d4 14 00 00 00 	mov    DWORD PTR [rbp-0x2c],0x14
     fe3:	c7 45 d8 03 00 00 00 	mov    DWORD PTR [rbp-0x28],0x3
     fea:	c7 45 dc 05 00 00 00 	mov    DWORD PTR [rbp-0x24],0x5
     ff1:	c7 45 e0 0b 00 00 00 	mov    DWORD PTR [rbp-0x20],0xb
     ff8:	c7 45 e4 0e 00 00 00 	mov    DWORD PTR [rbp-0x1c],0xe
     fff:	c7 45 e8 0b 00 00 00 	mov    DWORD PTR [rbp-0x18],0xb
    1006:	48 8d 85 58 ff ff ff 	lea    rax,[rbp-0xa8]
    100d:	be 04 00 00 00       	mov    esi,0x4
    1012:	48 89 c7             	mov    rdi,rax
    1015:	e8 00 00 00 00       	call   101a <testTwoSumC+0x30c>
    101a:	48 89 85 70 ff ff ff 	mov    QWORD PTR [rbp-0x90],rax
    1021:	48 8b 8d 58 ff ff ff 	mov    rcx,QWORD PTR [rbp-0xa8]
    1028:	48 8b 95 70 ff ff ff 	mov    rdx,QWORD PTR [rbp-0x90]
    102f:	48 8d 45 d0          	lea    rax,[rbp-0x30]
    1033:	49 89 c8             	mov    r8,rcx
    1036:	48 89 d1             	mov    rcx,rdx
    1039:	ba 0a 00 00 00       	mov    edx,0xa
    103e:	be 07 00 00 00       	mov    esi,0x7
    1043:	48 89 c7             	mov    rdi,rax
    1046:	e8 00 00 00 00       	call   104b <testTwoSumC+0x33d>
    104b:	48 89 85 78 ff ff ff 	mov    QWORD PTR [rbp-0x88],rax
    1052:	48 8d 05 00 00 00 00 	lea    rax,[rip+0x0]        # 1059 <testTwoSumC+0x34b>
    1059:	48 89 45 90          	mov    QWORD PTR [rbp-0x70],rax
    105d:	48 8b 85 70 ff ff ff 	mov    rax,QWORD PTR [rbp-0x90]
    1064:	8b 00                	mov    eax,DWORD PTR [rax]
    1066:	85 c0                	test   eax,eax
    1068:	0f 94 c0             	sete   al
    106b:	88 45 98             	mov    BYTE PTR [rbp-0x68],al
    106e:	48 8b 15 00 00 00 00 	mov    rdx,QWORD PTR [rip+0x0]        # 1075 <testTwoSumC+0x367>
    1075:	48 8b 05 00 00 00 00 	mov    rax,QWORD PTR [rip+0x0]        # 107c <testTwoSumC+0x36e>
    107c:	48 39 c2             	cmp    rdx,rax
    107f:	75 57                	jne    10d8 <testTwoSumC+0x3ca>
    1081:	48 8b 05 00 00 00 00 	mov    rax,QWORD PTR [rip+0x0]        # 1088 <testTwoSumC+0x37a>
    1088:	48 89 c7             	mov    rdi,rax
    108b:	e8 70 ef ff ff       	call   0 <nextArrayAllocSize>
    1090:	48 c1 e0 04          	shl    rax,0x4
    1094:	48 89 c1             	mov    rcx,rax
    1097:	48 8b 05 00 00 00 00 	mov    rax,QWORD PTR [rip+0x0]        # 109e <testTwoSumC+0x390>
    109e:	48 c1 e0 04          	shl    rax,0x4
    10a2:	48 89 c2             	mov    rdx,rax
    10a5:	48 8b 35 00 00 00 00 	mov    rsi,QWORD PTR [rip+0x0]        # 10ac <testTwoSumC+0x39e>
    10ac:	48 8b 05 00 00 00 00 	mov    rax,QWORD PTR [rip+0x0]        # 10b3 <testTwoSumC+0x3a5>
    10b3:	48 89 c7             	mov    rdi,rax
    10b6:	e8 64 ef ff ff       	call   1f <reallocArray>
    10bb:	48 89 05 00 00 00 00 	mov    QWORD PTR [rip+0x0],rax        # 10c2 <testTwoSumC+0x3b4>
    10c2:	48 8b 05 00 00 00 00 	mov    rax,QWORD PTR [rip+0x0]        # 10c9 <testTwoSumC+0x3bb>
    10c9:	48 89 c7             	mov    rdi,rax
    10cc:	e8 2f ef ff ff       	call   0 <nextArrayAllocSize>
    10d1:	48 89 05 00 00 00 00 	mov    QWORD PTR [rip+0x0],rax        # 10d8 <testTwoSumC+0x3ca>
    10d8:	48 8b 05 00 00 00 00 	mov    rax,QWORD PTR [rip+0x0]        # 10df <testTwoSumC+0x3d1>
    10df:	48 8b 15 00 00 00 00 	mov    rdx,QWORD PTR [rip+0x0]        # 10e6 <testTwoSumC+0x3d8>
    10e6:	48 c1 e2 04          	shl    rdx,0x4
    10ea:	48 8d 0c 10          	lea    rcx,[rax+rdx*1]
    10ee:	48 8b 45 90          	mov    rax,QWORD PTR [rbp-0x70]
    10f2:	48 8b 55 98          	mov    rdx,QWORD PTR [rbp-0x68]
    10f6:	48 89 01             	mov    QWORD PTR [rcx],rax
    10f9:	48 89 51 08          	mov    QWORD PTR [rcx+0x8],rdx
    10fd:	48 8b 05 00 00 00 00 	mov    rax,QWORD PTR [rip+0x0]        # 1104 <testTwoSumC+0x3f6>
    1104:	48 83 c0 01          	add    rax,0x1
    1108:	48 89 05 00 00 00 00 	mov    QWORD PTR [rip+0x0],rax        # 110f <testTwoSumC+0x401>
    110f:	48 8d 05 00 00 00 00 	lea    rax,[rip+0x0]        # 1116 <testTwoSumC+0x408>
    1116:	48 89 45 90          	mov    QWORD PTR [rbp-0x70],rax
    111a:	48 83 bd 78 ff ff ff 	cmp    QWORD PTR [rbp-0x88],0x0
    1121:	00 
    1122:	0f 94 c0             	sete   al
    1125:	88 45 98             	mov    BYTE PTR [rbp-0x68],al
    1128:	48 8b 15 00 00 00 00 	mov    rdx,QWORD PTR [rip+0x0]        # 112f <testTwoSumC+0x421>
    112f:	48 8b 05 00 00 00 00 	mov    rax,QWORD PTR [rip+0x0]        # 1136 <testTwoSumC+0x428>
    1136:	48 39 c2             	cmp    rdx,rax
    1139:	75 57                	jne    1192 <testTwoSumC+0x484>
    113b:	48 8b 05 00 00 00 00 	mov    rax,QWORD PTR [rip+0x0]        # 1142 <testTwoSumC+0x434>
    1142:	48 89 c7             	mov    rdi,rax
    1145:	e8 b6 ee ff ff       	call   0 <nextArrayAllocSize>
    114a:	48 c1 e0 04          	shl    rax,0x4
    114e:	48 89 c1             	mov    rcx,rax
    1151:	48 8b 05 00 00 00 00 	mov    rax,QWORD PTR [rip+0x0]        # 1158 <testTwoSumC+0x44a>
    1158:	48 c1 e0 04          	shl    rax,0x4
    115c:	48 89 c2             	mov    rdx,rax
    115f:	48 8b 35 00 00 00 00 	mov    rsi,QWORD PTR [rip+0x0]        # 1166 <testTwoSumC+0x458>
    1166:	48 8b 05 00 00 00 00 	mov    rax,QWORD PTR [rip+0x0]        # 116d <testTwoSumC+0x45f>
    116d:	48 89 c7             	mov    rdi,rax
    1170:	e8 aa ee ff ff       	call   1f <reallocArray>
    1175:	48 89 05 00 00 00 00 	mov    QWORD PTR [rip+0x0],rax        # 117c <testTwoSumC+0x46e>
    117c:	48 8b 05 00 00 00 00 	mov    rax,QWORD PTR [rip+0x0]        # 1183 <testTwoSumC+0x475>
    1183:	48 89 c7             	mov    rdi,rax
    1186:	e8 75 ee ff ff       	call   0 <nextArrayAllocSize>
    118b:	48 89 05 00 00 00 00 	mov    QWORD PTR [rip+0x0],rax        # 1192 <testTwoSumC+0x484>
    1192:	48 8b 05 00 00 00 00 	mov    rax,QWORD PTR [rip+0x0]        # 1199 <testTwoSumC+0x48b>
    1199:	48 8b 15 00 00 00 00 	mov    rdx,QWORD PTR [rip+0x0]        # 11a0 <testTwoSumC+0x492>
    11a0:	48 c1 e2 04          	shl    rdx,0x4
    11a4:	48 8d 0c 10          	lea    rcx,[rax+rdx*1]
    11a8:	48 8b 45 90          	mov    rax,QWORD PTR [rbp-0x70]
    11ac:	48 8b 55 98          	mov    rdx,QWORD PTR [rbp-0x68]
    11b0:	48 89 01             	mov    QWORD PTR [rcx],rax
    11b3:	48 89 51 08          	mov    QWORD PTR [rcx+0x8],rdx
    11b7:	48 8b 05 00 00 00 00 	mov    rax,QWORD PTR [rip+0x0]        # 11be <testTwoSumC+0x4b0>
    11be:	48 83 c0 01          	add    rax,0x1
    11c2:	48 89 05 00 00 00 00 	mov    QWORD PTR [rip+0x0],rax        # 11c9 <testTwoSumC+0x4bb>
    11c9:	c7 45 b0 64 00 00 00 	mov    DWORD PTR [rbp-0x50],0x64
    11d0:	c7 45 b4 32 02 00 00 	mov    DWORD PTR [rbp-0x4c],0x232
    11d7:	c7 45 b8 b1 02 00 00 	mov    DWORD PTR [rbp-0x48],0x2b1
    11de:	c7 45 bc 8e 02 00 00 	mov    DWORD PTR [rbp-0x44],0x28e
    11e5:	c7 45 c0 e8 03 00 00 	mov    DWORD PTR [rbp-0x40],0x3e8
    11ec:	c7 45 c4 38 00 00 00 	mov    DWORD PTR [rbp-0x3c],0x38
    11f3:	48 8d 85 58 ff ff ff 	lea    rax,[rbp-0xa8]
    11fa:	be 04 00 00 00       	mov    esi,0x4
    11ff:	48 89 c7             	mov    rdi,rax
    1202:	e8 00 00 00 00       	call   1207 <testTwoSumC+0x4f9>
    1207:	48 89 45 80          	mov    QWORD PTR [rbp-0x80],rax
    120b:	48 8b 8d 58 ff ff ff 	mov    rcx,QWORD PTR [rbp-0xa8]
    1212:	48 8b 55 80          	mov    rdx,QWORD PTR [rbp-0x80]
    1216:	48 8d 45 b0          	lea    rax,[rbp-0x50]
    121a:	49 89 c8             	mov    r8,rcx
    121d:	48 89 d1             	mov    rcx,rdx
    1220:	ba 76 06 00 00       	mov    edx,0x676
    1225:	be 06 00 00 00       	mov    esi,0x6
    122a:	48 89 c7             	mov    rdi,rax
    122d:	e8 00 00 00 00       	call   1232 <testTwoSumC+0x524>
    1232:	48 89 45 88          	mov    QWORD PTR [rbp-0x78],rax
    1236:	48 8d 05 00 00 00 00 	lea    rax,[rip+0x0]        # 123d <testTwoSumC+0x52f>
    123d:	48 89 45 90          	mov    QWORD PTR [rbp-0x70],rax
    1241:	48 8b 45 80          	mov    rax,QWORD PTR [rbp-0x80]
    1245:	8b 00                	mov    eax,DWORD PTR [rax]
    1247:	83 f8 02             	cmp    eax,0x2
    124a:	0f 94 c0             	sete   al
    124d:	88 45 98             	mov    BYTE PTR [rbp-0x68],al
    1250:	48 8b 15 00 00 00 00 	mov    rdx,QWORD PTR [rip+0x0]        # 1257 <testTwoSumC+0x549>
    1257:	48 8b 05 00 00 00 00 	mov    rax,QWORD PTR [rip+0x0]        # 125e <testTwoSumC+0x550>
    125e:	48 39 c2             	cmp    rdx,rax
    1261:	75 57                	jne    12ba <testTwoSumC+0x5ac>
    1263:	48 8b 05 00 00 00 00 	mov    rax,QWORD PTR [rip+0x0]        # 126a <testTwoSumC+0x55c>
    126a:	48 89 c7             	mov    rdi,rax
    126d:	e8 8e ed ff ff       	call   0 <nextArrayAllocSize>
    1272:	48 c1 e0 04          	shl    rax,0x4
    1276:	48 89 c1             	mov    rcx,rax
    1279:	48 8b 05 00 00 00 00 	mov    rax,QWORD PTR [rip+0x0]        # 1280 <testTwoSumC+0x572>
    1280:	48 c1 e0 04          	shl    rax,0x4
    1284:	48 89 c2             	mov    rdx,rax
    1287:	48 8b 35 00 00 00 00 	mov    rsi,QWORD PTR [rip+0x0]        # 128e <testTwoSumC+0x580>
    128e:	48 8b 05 00 00 00 00 	mov    rax,QWORD PTR [rip+0x0]        # 1295 <testTwoSumC+0x587>
    1295:	48 89 c7             	mov    rdi,rax
    1298:	e8 82 ed ff ff       	call   1f <reallocArray>
    129d:	48 89 05 00 00 00 00 	mov    QWORD PTR [rip+0x0],rax        # 12a4 <testTwoSumC+0x596>
    12a4:	48 8b 05 00 00 00 00 	mov    rax,QWORD PTR [rip+0x0]        # 12ab <testTwoSumC+0x59d>
    12ab:	48 89 c7             	mov    rdi,rax
    12ae:	e8 4d ed ff ff       	call   0 <nextArrayAllocSize>
    12b3:	48 89 05 00 00 00 00 	mov    QWORD PTR [rip+0x0],rax        # 12ba <testTwoSumC+0x5ac>
    12ba:	48 8b 05 00 00 00 00 	mov    rax,QWORD PTR [rip+0x0]        # 12c1 <testTwoSumC+0x5b3>
    12c1:	48 8b 15 00 00 00 00 	mov    rdx,QWORD PTR [rip+0x0]        # 12c8 <testTwoSumC+0x5ba>
    12c8:	48 c1 e2 04          	shl    rdx,0x4
    12cc:	48 8d 0c 10          	lea    rcx,[rax+rdx*1]
    12d0:	48 8b 45 90          	mov    rax,QWORD PTR [rbp-0x70]
    12d4:	48 8b 55 98          	mov    rdx,QWORD PTR [rbp-0x68]
    12d8:	48 89 01             	mov    QWORD PTR [rcx],rax
    12db:	48 89 51 08          	mov    QWORD PTR [rcx+0x8],rdx
    12df:	48 8b 05 00 00 00 00 	mov    rax,QWORD PTR [rip+0x0]        # 12e6 <testTwoSumC+0x5d8>
    12e6:	48 83 c0 01          	add    rax,0x1
    12ea:	48 89 05 00 00 00 00 	mov    QWORD PTR [rip+0x0],rax        # 12f1 <testTwoSumC+0x5e3>
    12f1:	48 8d 05 00 00 00 00 	lea    rax,[rip+0x0]        # 12f8 <testTwoSumC+0x5ea>
    12f8:	48 89 45 90          	mov    QWORD PTR [rbp-0x70],rax
    12fc:	48 8b 45 88          	mov    rax,QWORD PTR [rbp-0x78]
    1300:	8b 00                	mov    eax,DWORD PTR [rax]
    1302:	83 f8 03             	cmp    eax,0x3
    1305:	0f 94 c0             	sete   al
    1308:	88 45 98             	mov    BYTE PTR [rbp-0x68],al
    130b:	48 8b 15 00 00 00 00 	mov    rdx,QWORD PTR [rip+0x0]        # 1312 <testTwoSumC+0x604>
    1312:	48 8b 05 00 00 00 00 	mov    rax,QWORD PTR [rip+0x0]        # 1319 <testTwoSumC+0x60b>
    1319:	48 39 c2             	cmp    rdx,rax
    131c:	75 57                	jne    1375 <testTwoSumC+0x667>
    131e:	48 8b 05 00 00 00 00 	mov    rax,QWORD PTR [rip+0x0]        # 1325 <testTwoSumC+0x617>
    1325:	48 89 c7             	mov    rdi,rax
    1328:	e8 d3 ec ff ff       	call   0 <nextArrayAllocSize>
    132d:	48 c1 e0 04          	shl    rax,0x4
    1331:	48 89 c1             	mov    rcx,rax
    1334:	48 8b 05 00 00 00 00 	mov    rax,QWORD PTR [rip+0x0]        # 133b <testTwoSumC+0x62d>
    133b:	48 c1 e0 04          	shl    rax,0x4
    133f:	48 89 c2             	mov    rdx,rax
    1342:	48 8b 35 00 00 00 00 	mov    rsi,QWORD PTR [rip+0x0]        # 1349 <testTwoSumC+0x63b>
    1349:	48 8b 05 00 00 00 00 	mov    rax,QWORD PTR [rip+0x0]        # 1350 <testTwoSumC+0x642>
    1350:	48 89 c7             	mov    rdi,rax
    1353:	e8 c7 ec ff ff       	call   1f <reallocArray>
    1358:	48 89 05 00 00 00 00 	mov    QWORD PTR [rip+0x0],rax        # 135f <testTwoSumC+0x651>
    135f:	48 8b 05 00 00 00 00 	mov    rax,QWORD PTR [rip+0x0]        # 1366 <testTwoSumC+0x658>
    1366:	48 89 c7             	mov    rdi,rax
    1369:	e8 92 ec ff ff       	call   0 <nextArrayAllocSize>
    136e:	48 89 05 00 00 00 00 	mov    QWORD PTR [rip+0x0],rax        # 1375 <testTwoSumC+0x667>
    1375:	48 8b 05 00 00 00 00 	mov    rax,QWORD PTR [rip+0x0]        # 137c <testTwoSumC+0x66e>
    137c:	48 8b 15 00 00 00 00 	mov    rdx,QWORD PTR [rip+0x0]        # 1383 <testTwoSumC+0x675>
    1383:	48 c1 e2 04          	shl    rdx,0x4
    1387:	48 8d 0c 10          	lea    rcx,[rax+rdx*1]
    138b:	48 8b 45 90          	mov    rax,QWORD PTR [rbp-0x70]
    138f:	48 8b 55 98          	mov    rdx,QWORD PTR [rbp-0x68]
    1393:	48 89 01             	mov    QWORD PTR [rcx],rax
    1396:	48 89 51 08          	mov    QWORD PTR [rcx+0x8],rdx
    139a:	48 8b 05 00 00 00 00 	mov    rax,QWORD PTR [rip+0x0]        # 13a1 <testTwoSumC+0x693>
    13a1:	48 83 c0 01          	add    rax,0x1
    13a5:	48 89 05 00 00 00 00 	mov    QWORD PTR [rip+0x0],rax        # 13ac <testTwoSumC+0x69e>
    13ac:	48 8d 05 00 00 00 00 	lea    rax,[rip+0x0]        # 13b3 <testTwoSumC+0x6a5>
    13b3:	48 89 45 90          	mov    QWORD PTR [rbp-0x70],rax
    13b7:	48 8b 45 88          	mov    rax,QWORD PTR [rbp-0x78]
    13bb:	48 83 c0 04          	add    rax,0x4
    13bf:	8b 00                	mov    eax,DWORD PTR [rax]
    13c1:	83 f8 04             	cmp    eax,0x4
    13c4:	0f 94 c0             	sete   al
    13c7:	88 45 98             	mov    BYTE PTR [rbp-0x68],al
    13ca:	48 8b 15 00 00 00 00 	mov    rdx,QWORD PTR [rip+0x0]        # 13d1 <testTwoSumC+0x6c3>
    13d1:	48 8b 05 00 00 00 00 	mov    rax,QWORD PTR [rip+0x0]        # 13d8 <testTwoSumC+0x6ca>
    13d8:	48 39 c2             	cmp    rdx,rax
    13db:	75 57                	jne    1434 <testTwoSumC+0x726>
    13dd:	48 8b 05 00 00 00 00 	mov    rax,QWORD PTR [rip+0x0]        # 13e4 <testTwoSumC+0x6d6>
    13e4:	48 89 c7             	mov    rdi,rax
    13e7:	e8 14 ec ff ff       	call   0 <nextArrayAllocSize>
    13ec:	48 c1 e0 04          	shl    rax,0x4
    13f0:	48 89 c1             	mov    rcx,rax
    13f3:	48 8b 05 00 00 00 00 	mov    rax,QWORD PTR [rip+0x0]        # 13fa <testTwoSumC+0x6ec>
    13fa:	48 c1 e0 04          	shl    rax,0x4
    13fe:	48 89 c2             	mov    rdx,rax
    1401:	48 8b 35 00 00 00 00 	mov    rsi,QWORD PTR [rip+0x0]        # 1408 <testTwoSumC+0x6fa>
    1408:	48 8b 05 00 00 00 00 	mov    rax,QWORD PTR [rip+0x0]        # 140f <testTwoSumC+0x701>
    140f:	48 89 c7             	mov    rdi,rax
    1412:	e8 08 ec ff ff       	call   1f <reallocArray>
    1417:	48 89 05 00 00 00 00 	mov    QWORD PTR [rip+0x0],rax        # 141e <testTwoSumC+0x710>
    141e:	48 8b 05 00 00 00 00 	mov    rax,QWORD PTR [rip+0x0]        # 1425 <testTwoSumC+0x717>
    1425:	48 89 c7             	mov    rdi,rax
    1428:	e8 d3 eb ff ff       	call   0 <nextArrayAllocSize>
    142d:	48 89 05 00 00 00 00 	mov    QWORD PTR [rip+0x0],rax        # 1434 <testTwoSumC+0x726>
    1434:	48 8b 05 00 00 00 00 	mov    rax,QWORD PTR [rip+0x0]        # 143b <testTwoSumC+0x72d>
    143b:	48 8b 15 00 00 00 00 	mov    rdx,QWORD PTR [rip+0x0]        # 1442 <testTwoSumC+0x734>
    1442:	48 c1 e2 04          	shl    rdx,0x4
    1446:	48 8d 0c 10          	lea    rcx,[rax+rdx*1]
    144a:	48 8b 45 90          	mov    rax,QWORD PTR [rbp-0x70]
    144e:	48 8b 55 98          	mov    rdx,QWORD PTR [rbp-0x68]
    1452:	48 89 01             	mov    QWORD PTR [rcx],rax
    1455:	48 89 51 08          	mov    QWORD PTR [rcx+0x8],rdx
    1459:	48 8b 05 00 00 00 00 	mov    rax,QWORD PTR [rip+0x0]        # 1460 <testTwoSumC+0x752>
    1460:	48 83 c0 01          	add    rax,0x1
    1464:	48 89 05 00 00 00 00 	mov    QWORD PTR [rip+0x0],rax        # 146b <testTwoSumC+0x75d>
    146b:	90                   	nop
    146c:	48 8b 45 f8          	mov    rax,QWORD PTR [rbp-0x8]
    1470:	64 48 2b 04 25 28 00 	sub    rax,QWORD PTR fs:0x28
    1477:	00 00 
    1479:	74 05                	je     1480 <testTwoSumC+0x772>
    147b:	e8 00 00 00 00       	call   1480 <testTwoSumC+0x772>
    1480:	c9                   	leave
    1481:	c3                   	ret

0000000000001482 <main>:
    1482:	55                   	push   rbp
    1483:	48 89 e5             	mov    rbp,rsp
    1486:	48 83 ec 30          	sub    rsp,0x30
    148a:	b8 00 00 00 00       	mov    eax,0x0
    148f:	e8 00 00 00 00       	call   1494 <main+0x12>
    1494:	48 89 45 d8          	mov    QWORD PTR [rbp-0x28],rax
    1498:	48 8b 45 d8          	mov    rax,QWORD PTR [rbp-0x28]
    149c:	48 89 c7             	mov    rdi,rax
    149f:	e8 00 00 00 00       	call   14a4 <main+0x22>
    14a4:	48 8d 05 00 00 00 00 	lea    rax,[rip+0x0]        # 14ab <main+0x29>
    14ab:	48 89 45 e0          	mov    QWORD PTR [rbp-0x20],rax
    14af:	48 8d 05 00 00 00 00 	lea    rax,[rip+0x0]        # 14b6 <main+0x34>
    14b6:	48 89 45 e8          	mov    QWORD PTR [rbp-0x18],rax
    14ba:	c6 45 f0 00          	mov    BYTE PTR [rbp-0x10],0x0
    14be:	48 8b 15 00 00 00 00 	mov    rdx,QWORD PTR [rip+0x0]        # 14c5 <main+0x43>
    14c5:	48 8b 05 00 00 00 00 	mov    rax,QWORD PTR [rip+0x0]        # 14cc <main+0x4a>
    14cc:	48 39 c2             	cmp    rdx,rax
    14cf:	75 6c                	jne    153d <main+0xbb>
    14d1:	48 8b 05 00 00 00 00 	mov    rax,QWORD PTR [rip+0x0]        # 14d8 <main+0x56>
    14d8:	48 89 c7             	mov    rdi,rax
    14db:	e8 20 eb ff ff       	call   0 <nextArrayAllocSize>
    14e0:	48 89 c2             	mov    rdx,rax
    14e3:	48 89 d0             	mov    rax,rdx
    14e6:	48 01 c0             	add    rax,rax
    14e9:	48 01 d0             	add    rax,rdx
    14ec:	48 c1 e0 03          	shl    rax,0x3
    14f0:	48 89 c1             	mov    rcx,rax
    14f3:	48 8b 15 00 00 00 00 	mov    rdx,QWORD PTR [rip+0x0]        # 14fa <main+0x78>
    14fa:	48 89 d0             	mov    rax,rdx
    14fd:	48 01 c0             	add    rax,rax
    1500:	48 01 d0             	add    rax,rdx
    1503:	48 c1 e0 03          	shl    rax,0x3
    1507:	48 89 c2             	mov    rdx,rax
    150a:	48 8b 35 00 00 00 00 	mov    rsi,QWORD PTR [rip+0x0]        # 1511 <main+0x8f>
    1511:	48 8b 05 00 00 00 00 	mov    rax,QWORD PTR [rip+0x0]        # 1518 <main+0x96>
    1518:	48 89 c7             	mov    rdi,rax
    151b:	e8 ff ea ff ff       	call   1f <reallocArray>
    1520:	48 89 05 00 00 00 00 	mov    QWORD PTR [rip+0x0],rax        # 1527 <main+0xa5>
    1527:	48 8b 05 00 00 00 00 	mov    rax,QWORD PTR [rip+0x0]        # 152e <main+0xac>
    152e:	48 89 c7             	mov    rdi,rax
    1531:	e8 ca ea ff ff       	call   0 <nextArrayAllocSize>
    1536:	48 89 05 00 00 00 00 	mov    QWORD PTR [rip+0x0],rax        # 153d <main+0xbb>
    153d:	48 8b 0d 00 00 00 00 	mov    rcx,QWORD PTR [rip+0x0]        # 1544 <main+0xc2>
    1544:	48 8b 15 00 00 00 00 	mov    rdx,QWORD PTR [rip+0x0]        # 154b <main+0xc9>
    154b:	48 89 d0             	mov    rax,rdx
    154e:	48 01 c0             	add    rax,rax
    1551:	48 01 d0             	add    rax,rdx
    1554:	48 c1 e0 03          	shl    rax,0x3
    1558:	48 01 c1             	add    rcx,rax
    155b:	48 8b 45 e0          	mov    rax,QWORD PTR [rbp-0x20]
    155f:	48 8b 55 e8          	mov    rdx,QWORD PTR [rbp-0x18]
    1563:	48 89 01             	mov    QWORD PTR [rcx],rax
    1566:	48 89 51 08          	mov    QWORD PTR [rcx+0x8],rdx
    156a:	48 8b 45 f0          	mov    rax,QWORD PTR [rbp-0x10]
    156e:	48 89 41 10          	mov    QWORD PTR [rcx+0x10],rax
    1572:	48 8b 05 00 00 00 00 	mov    rax,QWORD PTR [rip+0x0]        # 1579 <main+0xf7>
    1579:	48 83 c0 01          	add    rax,0x1
    157d:	48 89 05 00 00 00 00 	mov    QWORD PTR [rip+0x0],rax        # 1584 <main+0x102>
    1584:	48 8d 05 00 00 00 00 	lea    rax,[rip+0x0]        # 158b <main+0x109>
    158b:	48 89 45 e0          	mov    QWORD PTR [rbp-0x20],rax
    158f:	48 8d 05 00 00 00 00 	lea    rax,[rip+0x0]        # 1596 <main+0x114>
    1596:	48 89 45 e8          	mov    QWORD PTR [rbp-0x18],rax
    159a:	c6 45 f0 00          	mov    BYTE PTR [rbp-0x10],0x0
    159e:	48 8b 15 00 00 00 00 	mov    rdx,QWORD PTR [rip+0x0]        # 15a5 <main+0x123>
    15a5:	48 8b 05 00 00 00 00 	mov    rax,QWORD PTR [rip+0x0]        # 15ac <main+0x12a>
    15ac:	48 39 c2             	cmp    rdx,rax
    15af:	75 6c                	jne    161d <main+0x19b>
    15b1:	48 8b 05 00 00 00 00 	mov    rax,QWORD PTR [rip+0x0]        # 15b8 <main+0x136>
    15b8:	48 89 c7             	mov    rdi,rax
    15bb:	e8 40 ea ff ff       	call   0 <nextArrayAllocSize>
    15c0:	48 89 c2             	mov    rdx,rax
    15c3:	48 89 d0             	mov    rax,rdx
    15c6:	48 01 c0             	add    rax,rax
    15c9:	48 01 d0             	add    rax,rdx
    15cc:	48 c1 e0 03          	shl    rax,0x3
    15d0:	48 89 c1             	mov    rcx,rax
    15d3:	48 8b 15 00 00 00 00 	mov    rdx,QWORD PTR [rip+0x0]        # 15da <main+0x158>
    15da:	48 89 d0             	mov    rax,rdx
    15dd:	48 01 c0             	add    rax,rax
    15e0:	48 01 d0             	add    rax,rdx
    15e3:	48 c1 e0 03          	shl    rax,0x3
    15e7:	48 89 c2             	mov    rdx,rax
    15ea:	48 8b 35 00 00 00 00 	mov    rsi,QWORD PTR [rip+0x0]        # 15f1 <main+0x16f>
    15f1:	48 8b 05 00 00 00 00 	mov    rax,QWORD PTR [rip+0x0]        # 15f8 <main+0x176>
    15f8:	48 89 c7             	mov    rdi,rax
    15fb:	e8 1f ea ff ff       	call   1f <reallocArray>
    1600:	48 89 05 00 00 00 00 	mov    QWORD PTR [rip+0x0],rax        # 1607 <main+0x185>
    1607:	48 8b 05 00 00 00 00 	mov    rax,QWORD PTR [rip+0x0]        # 160e <main+0x18c>
    160e:	48 89 c7             	mov    rdi,rax
    1611:	e8 ea e9 ff ff       	call   0 <nextArrayAllocSize>
    1616:	48 89 05 00 00 00 00 	mov    QWORD PTR [rip+0x0],rax        # 161d <main+0x19b>
    161d:	48 8b 0d 00 00 00 00 	mov    rcx,QWORD PTR [rip+0x0]        # 1624 <main+0x1a2>
    1624:	48 8b 15 00 00 00 00 	mov    rdx,QWORD PTR [rip+0x0]        # 162b <main+0x1a9>
    162b:	48 89 d0             	mov    rax,rdx
    162e:	48 01 c0             	add    rax,rax
    1631:	48 01 d0             	add    rax,rdx
    1634:	48 c1 e0 03          	shl    rax,0x3
    1638:	48 01 c1             	add    rcx,rax
    163b:	48 8b 45 e0          	mov    rax,QWORD PTR [rbp-0x20]
    163f:	48 8b 55 e8          	mov    rdx,QWORD PTR [rbp-0x18]
    1643:	48 89 01             	mov    QWORD PTR [rcx],rax
    1646:	48 89 51 08          	mov    QWORD PTR [rcx+0x8],rdx
    164a:	48 8b 45 f0          	mov    rax,QWORD PTR [rbp-0x10]
    164e:	48 89 41 10          	mov    QWORD PTR [rcx+0x10],rax
    1652:	48 8b 05 00 00 00 00 	mov    rax,QWORD PTR [rip+0x0]        # 1659 <main+0x1d7>
    1659:	48 83 c0 01          	add    rax,0x1
    165d:	48 89 05 00 00 00 00 	mov    QWORD PTR [rip+0x0],rax        # 1664 <main+0x1e2>
    1664:	48 8d 05 00 00 00 00 	lea    rax,[rip+0x0]        # 166b <main+0x1e9>
    166b:	48 89 45 e0          	mov    QWORD PTR [rbp-0x20],rax
    166f:	48 8d 05 00 00 00 00 	lea    rax,[rip+0x0]        # 1676 <main+0x1f4>
    1676:	48 89 45 e8          	mov    QWORD PTR [rbp-0x18],rax
    167a:	c6 45 f0 00          	mov    BYTE PTR [rbp-0x10],0x0
    167e:	48 8b 15 00 00 00 00 	mov    rdx,QWORD PTR [rip+0x0]        # 1685 <main+0x203>
    1685:	48 8b 05 00 00 00 00 	mov    rax,QWORD PTR [rip+0x0]        # 168c <main+0x20a>
    168c:	48 39 c2             	cmp    rdx,rax
    168f:	75 6c                	jne    16fd <main+0x27b>
    1691:	48 8b 05 00 00 00 00 	mov    rax,QWORD PTR [rip+0x0]        # 1698 <main+0x216>
    1698:	48 89 c7             	mov    rdi,rax
    169b:	e8 60 e9 ff ff       	call   0 <nextArrayAllocSize>
    16a0:	48 89 c2             	mov    rdx,rax
    16a3:	48 89 d0             	mov    rax,rdx
    16a6:	48 01 c0             	add    rax,rax
    16a9:	48 01 d0             	add    rax,rdx
    16ac:	48 c1 e0 03          	shl    rax,0x3
    16b0:	48 89 c1             	mov    rcx,rax
    16b3:	48 8b 15 00 00 00 00 	mov    rdx,QWORD PTR [rip+0x0]        # 16ba <main+0x238>
    16ba:	48 89 d0             	mov    rax,rdx
    16bd:	48 01 c0             	add    rax,rax
    16c0:	48 01 d0             	add    rax,rdx
    16c3:	48 c1 e0 03          	shl    rax,0x3
    16c7:	48 89 c2             	mov    rdx,rax
    16ca:	48 8b 35 00 00 00 00 	mov    rsi,QWORD PTR [rip+0x0]        # 16d1 <main+0x24f>
    16d1:	48 8b 05 00 00 00 00 	mov    rax,QWORD PTR [rip+0x0]        # 16d8 <main+0x256>
    16d8:	48 89 c7             	mov    rdi,rax
    16db:	e8 3f e9 ff ff       	call   1f <reallocArray>
    16e0:	48 89 05 00 00 00 00 	mov    QWORD PTR [rip+0x0],rax        # 16e7 <main+0x265>
    16e7:	48 8b 05 00 00 00 00 	mov    rax,QWORD PTR [rip+0x0]        # 16ee <main+0x26c>
    16ee:	48 89 c7             	mov    rdi,rax
    16f1:	e8 0a e9 ff ff       	call   0 <nextArrayAllocSize>
    16f6:	48 89 05 00 00 00 00 	mov    QWORD PTR [rip+0x0],rax        # 16fd <main+0x27b>
    16fd:	48 8b 0d 00 00 00 00 	mov    rcx,QWORD PTR [rip+0x0]        # 1704 <main+0x282>
    1704:	48 8b 15 00 00 00 00 	mov    rdx,QWORD PTR [rip+0x0]        # 170b <main+0x289>
    170b:	48 89 d0             	mov    rax,rdx
    170e:	48 01 c0             	add    rax,rax
    1711:	48 01 d0             	add    rax,rdx
    1714:	48 c1 e0 03          	shl    rax,0x3
    1718:	48 01 c1             	add    rcx,rax
    171b:	48 8b 45 e0          	mov    rax,QWORD PTR [rbp-0x20]
    171f:	48 8b 55 e8          	mov    rdx,QWORD PTR [rbp-0x18]
    1723:	48 89 01             	mov    QWORD PTR [rcx],rax
    1726:	48 89 51 08          	mov    QWORD PTR [rcx+0x8],rdx
    172a:	48 8b 45 f0          	mov    rax,QWORD PTR [rbp-0x10]
    172e:	48 89 41 10          	mov    QWORD PTR [rcx+0x10],rax
    1732:	48 8b 05 00 00 00 00 	mov    rax,QWORD PTR [rip+0x0]        # 1739 <main+0x2b7>
    1739:	48 83 c0 01          	add    rax,0x1
    173d:	48 89 05 00 00 00 00 	mov    QWORD PTR [rip+0x0],rax        # 1744 <main+0x2c2>
    1744:	b8 00 00 00 00       	mov    eax,0x0
    1749:	e8 00 00 00 00       	call   174e <main+0x2cc>
    174e:	c9                   	leave
    174f:	c3                   	ret
